(dp0
VSalvadoran
p1
(lp2
VUSoCUrnuGw1mwzVpo_dlmA
p3
aVkW6XJtkuHDrEiYPrgn2L5Q
p4
aVK5NSGMNeo8gFiu6XoAMjIQ
p5
aV0_9wbWq0uhGwjC2zOJfIbw
p6
aVxsmqDjeBD6zTSZB9kXO9nw
p7
asVStreet Vendors
p8
(lp9
VkmKDmstZWArVjPUBv1pBOw
p10
aV5N9nJbymj9JtOAEx6ZMxpg
p11
aVrFYqr2wSHR7lyKOB0z0LAA
p12
aVLvSKdHCch7Reet3c78XhaQ
p13
aVl9zbwhElXaaDM_zO_tB1eg
p14
aVzqvFNZq8q86V7QOcpURcSg
p15
aVNsh4KiDEu5xWhPjJftSESA
p16
aVgj-mUpQbqBTmZEglSRlvZw
p17
aVdQfvxeuNNqku7mozkk4Y3w
p18
aVqIdZY9IGSCNMIpXFy__02w
p19
aV_QNKVyihvoeCL8873l8x8Q
p20
aVB1VdJ0rIj3-aEUfyIgDRZQ
p21
aVsLg-XwYTap8FbK8hUvto1g
p22
aV9gNko6cFCMZbvy1zhJ7-Xg
p23
aVdBy1wm6sxkGXkBLtzn_g5A
p24
aVEQyFENS3MWYRuDt6Ty6QJQ
p25
aVmk0Hp0sLSG1aNG_lXT0Blg
p26
aVsxkLwC2uXeyJ5SWH9XTjYg
p27
aVc1VMBHkf11F80XgYKzbLLg
p28
aVP2g9XTX11wuEqtlLLqWfig
p29
aVwe-xtVt8oNuy6YIlRPd8nw
p30
asVTapas/Small Plates
p31
(lp32
VIIYFOk2akgmghxQI84SxKQ
p33
aVA6p0E-nFupEjDKpKx45CIQ
p34
aVhmz3GErbZNi4wBvj5lkWiw
p35
aVUWugDDs9_Cyj2ukZe3P9HA
p36
aVC7FKNwSUlbUinT9cRSLXHA
p37
aVDVuM5Lca3dIPoEMaD89Qjw
p38
asVFondue
p39
(lp40
Vh_we4E3zofRTf4G0JTEF0A
p41
aVcv6Rm3cYP6rvIPU1IfQINA
p42
aViWddTev2nI-gYuqOdQwU9A
p43
aVw55HWitt5aSAN77GtybZVw
p44
aVurg20Z_Ikho8ADXXzu00Vw
p45
aVQ1ty4a5uO7rPlPoSH6PK2w
p46
asVBuffets
p47
(lp48
VvkMzqm0kcyG-_QJR8r6elw
p49
aVG17QUujz-e6oWV_-LQc4Ag
p50
aV4z3bGvWjCc2716z2y9sroQ
p51
aVx09efcVl5WCcrChXpHKSJQ
p52
aVYOknlHsf3Z2hKO9Uk7w_3g
p53
aVcnMZ-Y0qWS-vwDj3u7sCQQ
p54
aVo_PfZdnoykPzb4TvZZiX0g
p55
aV9ubh_q5RVOvHhRSZh5dB5A
p56
aV3uUfb4kLIGC4Vn2ztUxrJw
p57
aVxLEeR-I9iYvgX8TAiFkdkQ
p58
aV_fT1huneKpDiFZoNrLaFDA
p59
aVpP8vL3HD_-hW08DlJ6peuw
p60
aVncZgdBYg2gzGeSLJb2xM0Q
p61
aVmfJmvMatYltnOTfQ2iVpBw
p62
aV_xyK_huyEs7U5vmY15d1Qg
p63
aVhlSh6K0idX0QWH-1Be2N5Q
p64
aVqB_Vt4AUbDX6r6qhS6gJ8g
p65
aVnp5Vx6HaNq1bizvz3zjpiw
p66
aVjMHo_8fvvoHEagoPW6FtCg
p67
aV3ejW1TGlpSVhaspKversrw
p68
aVAsgtzyqpdjuPyjaEUVcUXA
p69
aV6CruOxyuBRnJJx3wRu_oMA
p70
aVW_GBVQipa5JnIYbTkKdlRg
p71
aVZnnni2qXX7k3-314kK_w8A
p72
aVYN4Kk751tmdvoarGo8z7_A
p73
aVfAyRPDQnvG7_PIo3GFAgzA
p74
aVGGKesha1RQd21HyzRhj2bA
p75
aVyA-D2JsM279hh07O47Xf7g
p76
aVEUhH6r8AJz5XFLE-ZBrALg
p77
aV74wRr6PP6lbaL1YzUcYGAA
p78
aVB6N85aXcF3FfYixZvaEVwQ
p79
aV3ulgAMrHx6FFvDUMrLInDw
p80
aVuJRtVqt0XLr5cRIP9XefAg
p81
aVFLR0T5ETc3BFZtgmRanUWg
p82
aVbqwQawpoIqNmITtZHHMXhQ
p83
aVX2gKwUYR1CQ51XCpKU1_gQ
p84
aV3fV1JsA8tkhULXAT4O3-_w
p85
aVvC_JaMwrNzC1Nuu5ITUyCg
p86
aVY7ehe7zpS4zf8SjOltf9sw
p87
aViShXa17Ndl2KEZ5b55ZY3g
p88
asVGluten-Free
p89
(lp90
VjTPr0dFk2JgGYdDiIGro3Q
p91
aVWmmJKcSIwPrXb_fWKoXggQ
p92
aVRkYCZKSJ7Qhw7c7ognlm3A
p93
aV_2E7DVE_tLxjhDHyZdRIug
p94
aVApjfj4kkALF86mPlD9gR_Q
p95
aVWWyaK9oskNOpjCsO6MA7Pw
p96
ag43
aVrPEBinN7NEn8uosusvBarg
p97
aV3W0WFoA9NNseW3ndEOdyLA
p98
aV5HuYkhO6aQs1yzayTnMLNQ
p99
aV75Q-TMhx81R1yfXSGaMcTQ
p100
aVh37hllqEt6v9HGqzdiupow
p101
aVgcf4bQVbiOqglEmYBfbpwQ
p102
aVMPOLq2K771xngu7_CjXKQA
p103
aVQNU9hn3bg_HF6v6UndA6wQ
p104
aV70s4-8eBKEGkY7gqB0Q33A
p105
aVCUhwFEU13F6NC98VkwYElg
p106
asVArts & Entertainment
p107
(lp108
V-5Rah4ZvWsDu4oilUZxhtw
p109
aVD6374F90YKRU7qktcXAA7g
p110
aVRGp2i5AwfAynko-8-9pyMg
p111
aV0Da5sfXzUQdiuQ1aru_8Aw
p112
aVsvvia-JNuxy-bzYgrq6UYw
p113
aV4zEqYybRD1FQssLGaJnNZA
p114
aVBPT-D30wcq-_SOU8pY6zTw
p115
aVEkd4p4JmygAgzoaR4jFMJQ
p116
aVO73PF6AH2xdfPoktVCHn3w
p117
aVSfWZsocz-eqeYO1YOvkPiw
p118
aVS9BfGIOcDhCop34HNwd0pg
p119
aVgMANamc4HDyjMfXnP4kjDg
p120
aVt_ybXkC1dG3jQkfnusyoNQ
p121
aVRhaeYFuTJPwchMS7Tb_tSw
p122
aVj2cYa0F0IU40EE4nh784yQ
p123
aVKsadbzi6BFnyDH9QM9rWkw
p124
aVNgWcTtFsDRYMVmJtrxIVPw
p125
aVGLP0_Rs2y4Q0Gxk7r1dddQ
p126
aVi8uT-rfDKGwBApNX4tI2gg
p127
aVxVj6N6C6mVTt8-XoTYI_zg
p128
aV4rKXDHtTgxdGjj8Div8AFg
p129
aVWDTzX_C2CbAwxBbqm-od6g
p130
aVnbpoYm8Nt4t5cDTRem5_jQ
p131
aVr-MdoGkMYp3Kt71E9MUiIA
p132
aVD9KMunfXQm0FSqmpAXJvNA
p133
aV4qTAwAN1vxszH-Lr4mnRKA
p134
ag83
aVHUV9PpCIXJoSnQF9JdALOA
p135
aVYuRAhKAykFl6HE_nw3fYZA
p136
aVYFkrZhuA1phCiJB1EJV39w
p137
aVaysngmx-Tqb7Lpyx9f6yPw
p138
ag46
asVSandwiches
p139
(lp140
VEjgQxDOUS-GFLsNxoEFJJg
p141
aV8q_fyg8fkMeVx69jDhJ7jw
p142
aVPBqjmOB7Yjti3cFqy8-Ctw
p143
aV_VVitWVj4AvzqV91O6c1Mw
p144
aV7AlULGZI1pHt0imODsqdkg
p145
aVQ81Xj-eCVxi8mttVMn2UiQ
p146
aVp0VLfAQRXLAS_83etfe0GA
p147
aV6wlZNtRPwjHlwfJCizBs4g
p148
aVaPja2Bns3PuqGWv-bNWOXw
p149
aVGHWV5BHXfuNB4HkCcRHh0A
p150
aVNzn4B6Y-Rj2QOhSe7UTMzw
p151
aVK8v4s2WYnnYr7ouRSpC1rA
p152
aVCs-UYUF3mpSavDD4FELfTw
p153
aVvWXMwnNy1TUAc4-IuFoE1g
p154
aVf_y0wlUALp8O95b3sKk7mQ
p155
aVgmGp0R8_Hf_zJzS5VL6kyQ
p156
aV7NlcGz2E_pOs8y8N8rDR6Q
p157
aVrv2_jpzHnIYzq8_tHVrL1g
p158
aVX381_JV6xOq3VSsep13GvA
p159
aVp1izzP-7YomYrP2spmOrBQ
p160
aVjm0Smx_0_T_VZ1QJQAg7WQ
p161
aVoGOz6yTl19M9sSOedAJ-ag
p162
aVdCy1oVUMnoyNknh_Skxpug
p163
aVe0K9zhY_twFNOS98EwPNJw
p164
aV-1K9xLVS8HnG8n0g7Xq7mQ
p165
aVeCAOhaI3cKSIQUvDWd6MGQ
p166
aVEWswCV97BBb0ezXRZhCoOQ
p167
aVzkVSfgzLz03B2_627lrfkA
p168
aV25oxfardikMvieI3LW6dMA
p169
aVSCDym9EeJT8YUkaqVO4cZQ
p170
aV_JCVHifaphLx8MxSCjrjmQ
p171
aVa1sp-PiwbAthYG1JR8NfLg
p172
aVEUgqUqD5K4sp0zOMWYPmqw
p173
aVadlLsuafIDO_OOAr4tG1bg
p174
aVYI7z2ENr2t6e-FkZZCT3jw
p175
aVPTQVaWA-I5ZLzwy5oBbVMg
p176
aVmMUPanRGVEF6X6w5JiGZiw
p177
aVDO1Ukiuia9hs33VTnTY_Jg
p178
aVaJ1iMCVwG-FNzqaGb3g8LQ
p179
aVQpgRPWVFLtQrk6vQJk7wRw
p180
aVT3lzrvgAg-0vw9PPcl0DlQ
p181
aVTjVFVa9RidDYgOGhkyqsCw
p182
aVdKncjeWnvdqYiNC8l26fog
p183
aVOix4rsRSixY7yFHdh66AEg
p184
aVC2uQIDpzEJu39JmGd_Cw3Q
p185
aVszvwhj2QsblOU5yn3n2TLQ
p186
aV_q_lPi7HBUd3HIrSAHcrnA
p187
aVuv7n9Af48hRVlpLNojvi7g
p188
aVHPDZZjKAi4vmtLEvYmk2Hw
p189
aVMz1rzswdUrs6JvraTsizeg
p190
aVVCEv-AZJM8cvnf_ciEympw
p191
aVCYAkYUjKTycDER_l80qP0Q
p192
aVAU5C7IX0mogLK32u2EEOBQ
p193
aV5ph4kLeJb9v5hl71SyVv8Q
p194
aVRmrYUMJvBzSAtjtMYH1Glw
p195
aVj0C1t08TLW_iPPdC-8P_vQ
p196
aV2fTayx8rmxVAz23BSVH1aA
p197
aVF-FigR53J4BFf8fWIiH0rg
p198
aV1kHV-hdQXDLeyRyrxn4p7g
p199
aVo0KC5k-7fXH8LHf75Icfuw
p200
aVZ61bPo2-Myz1-7Xx00wxlA
p201
aVXHobfr8WLP3W-LnjJAbHmg
p202
aVRtkSumOcRr4GvRq-oUa2aA
p203
aVnSRDYvmTTgkJH4-nXzkvrQ
p204
aVvNxTvFz2cKLmoHVIfSzj0w
p205
aVbSWL0YxfawjS03_g2kgujA
p206
aV2I5GQsOXWBguYCzeo41_cw
p207
aVnrceacHfm6Ada7aAiTXtkg
p208
aVbQogSL1sMcGx-ssLRgnZSA
p209
aVGkQxwsRXYioD2VtCjNfedw
p210
aVZqd_DHAtrdzRJ8u3zwrvEA
p211
aVc3AMAv08iFfnRSGmqFy4rQ
p212
aV6CWCx51YbZ7ktkRSzA4ITQ
p213
aVqFwc6pD29qnTgd9tZDRYig
p214
aVbul_5Ahk_QYLUAJ4Od27jg
p215
aVbapPeqVRsAD08drpFpqpNg
p216
aV3wEb_nwAfA2v_lAdBrO5Sw
p217
aV-zqJGw78WnG1D2T3loDJbA
p218
aVlbGxgu8kwebOok4A9qK-qg
p219
aVAUV205p4o2uk9o80LrKHhA
p220
aV45geMwlwkeChaCPX5moxhg
p221
aVPiMolhf6b5SlESD-IrgHAg
p222
aVUmuyuqYraoB5WOZiev42IQ
p223
aV_7UvR1kWMoDdCAONuCzsEw
p224
aVA-toRZgCFfvHNGkKs6-5Jw
p225
aVEgkliPL7XtKCtFwDZfUnwg
p226
aVz5gaIxrB-Oab8ZALdY1unQ
p227
aVwooEclt2BfKBd16uqgrYeA
p228
aVgCPn8KXfHo5B3uUMQoBtkw
p229
aV1Ps3-IJycqFpR0uyii2HRQ
p230
aVkhYxvvCKRiR-wqMSbFzFmg
p231
aVY36qI_q817O0Wkm8QBIahg
p232
aVpdkptvd2H52KONC-50OHAg
p233
aVmUGiS3OAHFax0saS6k0vVA
p234
aV3qrfY-XCUKVyrO5T6GskqA
p235
aVUWGlfeD5n8GbASXPBztVIQ
p236
aVEuvQIymdxIcHv_fS80rVbg
p237
aVOu2UKAng-MwbpK2wSUUnJg
p238
aVUUsS7SrTQQ2AvvpslfrvFA
p239
aV9oaTJVP5gkTG-1uWXVI5oA
p240
aVv1jCkvN0tUY-nIuH66HsyA
p241
aVhnMMIRkc9dsfRPzGYS3BVQ
p242
aVjQEQQKOmCe0oTia-6F6Pyw
p243
aVuK-PhiaeeDhN_ctLJVngtw
p244
aVqjJDyQSoU4QgtSIyRkAZ6Q
p245
aV__rO-3gkVgaHRH158jA8OA
p246
aVC-MWu2V3J7dLzwXDciCpDA
p247
aVSIJy_CroQ6dmc8wQDqM5hg
p248
aV2m5gtNQnTgKchpFK6ZiOOg
p249
aVWVt2GdaHqZNE5qUIJ7k3Eg
p250
aV3QPVdctMl7-kSJJ67zRAaw
p251
aVuqNCIsAUgH0YxIXq5BWYTA
p252
aVdcnHSvgPJ9UQ1WxFYteQgQ
p253
aV7lnLcc02qBAH8N3j95IWSg
p254
aV1EdWZWebate-u52mEhb2jw
p255
aV3fQODB5WkKvlvxBFGUB0tA
p256
aVecL7-ZrAEcjNDrgEVp0yJw
p257
aV0BdTlANR3wdSgxZQJVPGBQ
p258
aVb6_1u8SbZJMbZvZAy9Etfg
p259
aVqEBzi4gG72w2khpVM2Flig
p260
aVxyqZo_ASwQlF-6LfPmem0A
p261
aV96FhXcSyvcbSh_of3re41A
p262
aVTUIDRJ_rUkdmYPSRAAEsPg
p263
aVLqVC-VEmJ3GQyKlfSVO3Zg
p264
aVGCvjfHFQfJPqJ9W2UunRhw
p265
ag16
aVdGnPDhCocopXhnzjM-rmLA
p266
aVkYD1PIXBsyZQXG_AEJB7ew
p267
aVGmGWPnFKkVETYBN6m_-7dA
p268
aVaFNynPMI-L7E_YyzlcqMhg
p269
aVnYFw5b30Td79jjm3cjABVw
p270
aVRP5AZTxPEsJY-L5Nmvi5Sg
p271
aVzBKeiex7NcrJhkgaxjztFA
p272
aV7GIS7jdPI0WwHYO6S_Grtg
p273
aVIH_ZeeTh13jQURbh31d1Kw
p274
aVgTZdJcQxEbCtnSNT3UdB2A
p275
aV6LCweMHsMAyB8pgwDOEtJw
p276
aVZ6Y4JnWBEvgay6PahHrQEQ
p277
aVcgjskfRh258evmpK3uW1rQ
p278
aVkvWKliaUQjNCj6Eh5mo12g
p279
aVbxU6a2Nfe0_jo_54HAYWfw
p280
aVg0vVEWvHbKBTvFYGyvhiSg
p281
aVebOCmEV2-Px4waW5riGrBA
p282
aVve4ytzNVLxFsFjkzW7ONlA
p283
aVcLxFEspKDn-RDyZBUKKTCQ
p284
aVXdwaaNJ9VyCdUjuIDe8j2Q
p285
aVT_gzQBwmnoeid2G0ds-HIg
p286
aVUsrKX2305OkmeI7K7cizjA
p287
aVt2tHuFNhPhlknnML7kzLww
p288
aVW5LqZikASAOuLFeFveWpPw
p289
aV3Rs3qIMp7J_6rInynU0uWg
p290
aVd5nmAn4vtWLrBFeNM_xP8w
p291
aVW6FwR39axWz8SvM6VX4lVw
p292
aVMeSeqjo33YKxfqY1oKxOSg
p293
aVUQMRJIM_X5ZvW31GTvkagw
p294
aVAb7pVtIpinCvULKA3bjNnA
p295
aVntH3yiPIjLyMxYDCfY-UUQ
p296
aVAMZQL6tnY6mO9jO9-hwdNA
p297
aVrvUrNQTh5gjXMOJxuYWNKQ
p298
aVEbtKpphKqzqF_1Te2Ri0qA
p299
aVaovVmlhEXUPCYg0j3jT6wQ
p300
aV0bTWc03QzqQmoPEcYchYLg
p301
aVoiDR1aREN1ZgmpHWwTEWyg
p302
aV85dhCrbRhnCEmJJk_dEROg
p303
aVfyccrRVc8Gjx2TV7WmtFyw
p304
aVC89rUvkbuFmbsP9qYKfX4g
p305
aVZF6u21h8tMJX_tNAlpJfKg
p306
aVwhMZfr4e4PURQ_zafb1sjg
p307
aVrcu96dLkUGU4Naj7GqOHDQ
p308
aVlSXdgjif3mFO3RhBhkltHg
p309
aVZh5ygoHhRS79RpRTwbjeAw
p310
aVb7LU1zhcJQBW3EianAIW7g
p311
aVb5_lEM30vD0RLXB1pHI3fg
p312
aVPGCmPHJdeAREQKYbhBMA5w
p313
aVL5ftnUjqvN5YSwblQ0V_jw
p314
aV7yNWN0MC3Jjq1ROOdofEOA
p315
aVYxYMAHI215UpbnUM2TeEGw
p316
aVqhz_ypl5rVzP-sJ-7t6ctw
p317
aVvfHJzF0ShYtwmotXE-0PiA
p318
aVQDFIkdXpqYTrglWkq8Buyg
p319
aVFTCEtMRJmP8mZdABAh_jaQ
p320
aVUgQd-xrVDX7APYbhFicskg
p321
aVwNTMfBrsvVHleI8cxO1TKw
p322
aVr3aaLFas48VMm2FbYgzwqA
p323
aVDS3-yphtWDHAdXLtIoqdAA
p324
aVN9bjF5E2ms6fSWEMmvt39w
p325
aVYlssXiZM7TG0oIMd_qVO0g
p326
aVkcgoe-GAEvlgPdNQLLQIgA
p327
aV1ZRVWvPCnrTnJrM_CZYsyw
p328
aVjvQCJE58c-eCEQ5f__CxOw
p329
aVJs20LjuFi5uaRXDVdhx7TQ
p330
aV9Mkm-JLdimNuNjVql5oiNA
p331
aV3OfmL7g8UJUfziv5P_dPSg
p332
aVOG_6Zaqt0Y4YZxgSpvXeQQ
p333
aVpY-U1UFqLnk4RiDA--bBlA
p334
aVHlMMlxkrVkdOfL7DBwRV-w
p335
aVg81TIN0s8fPRBFt1n92ijA
p336
aVs5PTJizGA5LXcpQRInEEaA
p337
aVvjx_lLRImGPZCu_B7arMOw
p338
aVa3yL_Po5o6paeTRd76tp-Q
p339
aVO0-MJj0x7BABx4FYf8vP7g
p340
aVQsCUS8u1mROJEyKd0DUKdA
p341
aVx7A2HhJfBrvHPUfVmqn2aQ
p342
aVKldkxVvCIpMS1VEjwvoMUg
p343
aV3QHNTTw5D0wZsGoap_OMRA
p344
aVPo_xhhkHvE3KjjD1pHOlhA
p345
aVWyzBDqBtqdbH3J0V2w9R6g
p346
aV-I7eTblVBSPw_7JXXpc-LA
p347
aVHc-uW3uYqAOyB2as00J9og
p348
aV51VOCZHznHW5U_nVmY8euw
p349
aVykwGLizkYXRsYy79kDFAKg
p350
aVJdgB2EqwAxxuHOChlf5Ncw
p351
aV4b8yMxZ5p4KddENZYmjMEg
p352
aVcRNCEb37UK7KJeG9kMgPzQ
p353
aV1wz7l5OyVoUlvPDRy59ZMA
p354
aVNtNAjOsre1y4rPsZ9UJ0yA
p355
aV8oUiRpdbLzqNKrBTGyBkZw
p356
aVOcV1ZqT_f_hOrRGJQSPakg
p357
aVE5PU2LTKOgSPGLJOSjhktw
p358
aVPUK0RoIvq8pgi38FSCg7cQ
p359
aVCHpzvc_-F3syFrwPs-2rOQ
p360
aVxswXiNLzSsyR4fLEkHtImQ
p361
aVTcwh7WEtKxodpYQeM26xdA
p362
aV9kng6u-2Err_0mkhea5T3g
p363
aVwPc5Bl6u9x8Ndw6uAnDeFg
p364
aV4tAj-C-8PAtfOfPHCHwa6g
p365
aV_5I5EOg495_sYuYI0Iy7YQ
p366
aVrKs40LPiZH9mDGixhfnvQA
p367
aVMUsSn6ZVa4kvLdfwXGNa2g
p368
aVgHWuPrcFbjlf0R0LO-SqXA
p369
aVssPJucGYwbzbLaIfejCcqQ
p370
aVLLqd2BL-na6fQbIPks4-Cg
p371
aVB3rqDNO6Tb3jVYM_JYNTIQ
p372
aVo996tDYd0KRgeuY9mDeAGg
p373
aVzTuPYiRzmeYZqjxTeAqhSA
p374
aVPPsQwCCtPPXcpgy_kCyfFQ
p375
aViZ5iGdT0eZoa9PtE5dHYTQ
p376
aVyirNnFJ8Mo8wN5Oy8hG6xQ
p377
aVFDxTLg_3ZcMdLQlfNyrBvg
p378
aV2x2X0vcxQRsuzKPz_CDwRQ
p379
aVZ4YY6zKOxlgvCJvDm5ZvLA
p380
aVpDEvJfSbXV6RaxDTwNTmWQ
p381
aVtZD_KYiRvDmwxTB1Dj-5PQ
p382
aVgZtTZ_JWEzpHpnHEIsx-6A
p383
aVAcC7eIobWe-nS9SKJKxQgA
p384
aVnuU8Wg64xGbsyK_DaOma-w
p385
aVdqux3WWVy2Gtyr3UwHL1wQ
p386
aVdIbyqYAdDJKQO9eO9LO1gw
p387
aVhXxrf7AcYLJcVe0nnfCicg
p388
aVTwRYZmKEeVBgQzoTlTj8HA
p389
aVmRZ57BWFLFSjyKyn9NBWGA
p390
aVapIscoJhs_Z0hfdiVLZSwQ
p391
aVYn2AIMcUICk0u5-V6_gDMQ
p392
aVLlvWsZG1C1XiRDq6tB4Wfg
p393
aVOzwOqZ5upbDaIjZ8hgP18g
p394
aVRa7lW1zMygGmX6_Jumpe_w
p395
aVtrjl04ZqxZOyazhgcJecPQ
p396
aVpLS3b_A1zfsMPQYpMrVmzg
p397
aVdazjs-4il07Qq5gf-hOleg
p398
aVz-SwOI7QhTSMSsJ0OWEu9g
p399
aV0Cwmp4Hm76QEXcpWkdbOUA
p400
aVG88EWEaYGth3npHz8UostQ
p401
aVEa-ZuT5DKD188BpRMTDyGA
p402
aV2JlOg_Tdlil15OvRP8tktg
p403
aVe3JYTYbYQlLTpzRhtkZr2A
p404
aVwKiTxc-b6VGXReW_M8ylMA
p405
aVx6ZI-_J7X9WK17l77x53-w
p406
aVGJIZlVlPncUQk9x1EjgnFA
p407
aVXHebqygyvhFvedq8RaRmrw
p408
aVszdea-uLMQZBhcgsucBQZA
p409
aVc577WXP83PAcIyDiaCtrDQ
p410
aVe9CQC0ILYwpmdFqhD6XfhA
p411
aVkYXnTyi3ucyxoswK9bvzCQ
p412
aVJXcDdqg4RZhSyr4ojCyY5A
p413
aVR109PJPOP1puLUHQWeWwcg
p414
aVohN09D6g0N0jd6Jc8uQntA
p415
aVyhGRai3h-Qt_co9-zwc2Sw
p416
aV-D9MErW_-PtNAFg3bOGYrA
p417
aVQGQktGth_Yk_suJP5Dw_Pw
p418
aVYI_atw2AZqGEfjn9_ZJ5nw
p419
aVstBfsf8DYEfPmO_r_HVORw
p420
aV6rG7v_iD_ynOVf3GB58SHg
p421
aV5CGyxYZzCp7_IcJU8yCphA
p422
aVBQbDU21SuXERM_gK9AA9AQ
p423
aV_ml4baOfxBFt8Gynh_nC5Q
p424
aVt0CBd_dgyztTvUkGX5fPBg
p425
aVwLQwVpFliw1JQbOssF6pQw
p426
aVTa8F63eZ2RLXLytYk5vl9w
p427
aVbhVReN50h-lLfgIWA5Ovgg
p428
aV7WHwaWg5uW3oWsEXLzQ25w
p429
aVLwT05xX5lDwTIB-3WblKvw
p430
aVviYnDqIlZ4mJyD8GunTwrQ
p431
aVzp3rZNu-5qonTL3ByPYOUg
p432
aVUFqSUXGBGhJKnz7V-3sFAQ
p433
aVIgr5Id1TWyM3JLsY_td9_w
p434
aVuDZVP311HGx3htqsP6QAtQ
p435
aVJNMYnJgZkC0Usd7wn_ESqA
p436
aVGeRh5XnPU8WukQHfE2URwg
p437
aV9iOUTtKt67ivBxCo-MlawA
p438
aVV_la4sa6CKvEUO4ZGo939w
p439
aVJlZdKK9SL2I1gCqxO5jTew
p440
aVzaFnxGccKKKzVPkVoE0M3Q
p441
ag128
aVAh4i15g8Ow_zphzcpulTxQ
p442
aVuf8WNaHKKssMUbQVg8nJ7g
p443
aVksRoyJsttIQnTt_nMk--GA
p444
aV-zpc_mBpFcBUMz0vb9LciQ
p445
aVcaGXS6ubNTlv91ZZyoirjQ
p446
aVyNnWaqDFdfD-MqbeAtDfSQ
p447
aVcqc7y_8KQgZopip-w3K6nQ
p448
aVcvER4PVKn_lYqlyWhP5rmg
p449
aVxpjyZ-hp_uosVmN81RMgMw
p450
aVBu9x6JH0H_b7_R_X53glOw
p451
aVW_14XPx-En1MmvaZykjxpQ
p452
aVGaTccmN78DL8hv2FRzHBVA
p453
aVfYzetiAGpfr0zU4CYnyeBQ
p454
aVQF1GWfBx5iVjpaKO0S19zw
p455
aVVkxKllQU-VE01z95ziQVCA
p456
aVeqWU2X_DqAMiLYfl3he98g
p457
aV7UfVCYkKu3x37GVEfPiUPg
p458
aVpO_u8GCRzOG-gu0ARMzIPA
p459
aVtZqkwGkiStWmKEDgk_LDTA
p460
aVsbJEAUxtSjGxXUFHK7SZYg
p461
aVnQeuHquFS793NnG_l2OoiA
p462
aV7W_8BUSIx0xe0jwd3e0bIw
p463
aVVzBhfIDiLmQ0WMXeBHjKCA
p464
aVo-orjPn9_bi_d3CCItXs0w
p465
aV4BxbX_N9Ba2B1X3O6akEYw
p466
aVF_ctYKeV67rrwQjUqE5ZnQ
p467
aVy4VJdUVRidgysxdNtIylTA
p468
aVAGHq9c6BgxBWwnasdCYPQQ
p469
aVURyanwarERKixLeROpiO6A
p470
aVxuRWwbM-qxSbDSv6Ph35Eg
p471
aVH09j7BhOUOzJcRZ7u4mJwg
p472
aVQ8vKIek2YD0MESa-9mttGw
p473
aV5G0Vy0N4H6c4eIGxb1JPSQ
p474
aV9jbiSU23TGDdBw0a94l3oA
p475
aVvpQQCCCjObUYnMPZSfwW5Q
p476
aVjOZheuOkUGKp4htT0xHIlA
p477
aV47qVw25eTyGXMVQe83ypVg
p478
aVKvH4gelbOZQPUvkcnITuvQ
p479
aVVPaEJyi2hZJ6Bc2nBlhqEw
p480
aVKEbV_mwq3hO8ryxhUhJ9Eg
p481
aVysVsbntiCHyrIbnJLJO-jw
p482
aV1qC6cPKdl5CKTgaGrmfSFQ
p483
aVRnJfohkID4P3symIH7FiYg
p484
aVQ0j0-u8WHHczEg5c9DPQKg
p485
aVim36Cxg-mcBLyz3pa53n6Q
p486
aV3hFYPkHGkOly-tboWGDRAA
p487
aVhwCthMrt77pywJA7Q6T_9Q
p488
aVqDdIQzhX04n1rlthiY3A8w
p489
aVclXIGAlc9gwsSPp-1Iyihw
p490
aVgupc57VIn_IOUTMtPsGmkg
p491
aVs9c3ufuhJ3phG1XI0zey0Q
p492
aVW3FCIA5X9n6ihmtIH0IZNA
p493
aVWSTdK7y1ZDw9JU3NUpFj7g
p494
aVgPs9U8fjYpJbYtMQThUeVA
p495
aV5U0Fe7UyZdvPMzUhOpzshg
p496
aVpXatCkCWUhL25aCk-OXwjQ
p497
aVw9GI3f5z_I3h1FvJo0oc8A
p498
aV8MD8Pjr2w_sB6bBV8iw4qA
p499
aVj5GZ9Kf6gYP3HOlhrGAeAw
p500
aVXowT8Y7kGXpIpfrZKsheOw
p501
aVJwvmZ3QET0ZgYykhiZb41g
p502
aV9vjEsVjT_g4LDJ_NlGvKDg
p503
aVSZV1IMelAnpULtbvpPGd4A
p504
aVaDZFoFGgT1woBhD-zkIoLA
p505
aVSshCTk72j_mmhLfe3IvNdw
p506
aVL5wNKBuK6-tj7cfFMmgv1A
p507
aVTaha6oEOUQUzPhjYSFlkSw
p508
aVgVQ7REHc3KTjROrI8LPhNQ
p509
aV6UmgSHK57s3TgWnGfpxz0w
p510
aVfAg584WefYUSDPpD84Q5Vg
p511
aVqylEvwzt5M_p7QTveZlEvQ
p512
aV4pzbarxHwsWIp3Fc47qE7g
p513
aVDH8K7VFDdqUPnITu1R_J4w
p514
aVJLyP3zNKUb1VFD0MVj0ZxQ
p515
aVQKOxWfuWa9Tml9IiCiEfiw
p516
aVxnTOGwCSzKFhCgEfOn0fLg
p517
aV0xjqQ2h5SzWe8zsHr6BG5w
p518
aV5ydvKUok_yX7dBHbpluuRg
p519
aVdI_hCzS0NLcPZdSGLTBcTg
p520
aVfSFb98pIz-FQochhvsKioA
p521
aV7suc1yaZT9Flmk6kIFAvqg
p522
aVqFfO4D-BwkU3bsfIbMIbpw
p523
aVB89hcoICKpeqrtCPCl-r9w
p524
aV0dRqzEG9-2QNnvJtdpdDZw
p525
aVNeY1bH6IKJxnn4YAixibsQ
p526
aVP5lR-AdqxUC944GJ0Sfd_Q
p527
aV0OXTdtcR_HnuCPbZ6804Xw
p528
aVWr1zxhdfq63b9LY9n7RhYg
p529
aVz0Y_CqAXFATiY-jggR-apQ
p530
aVU4eJae433Tto-UpRAzdojA
p531
aVDtAGQu3EljPJbyASaJ2SpA
p532
aV_HHyl90DifZwovr5Oxkptg
p533
aV7cv2leiAcS5tUumVSm_KyA
p534
aVOzHE-w66ix5zTSOkBDm-1A
p535
aVCjUHKIWesCrw-N5NceJGtQ
p536
aVl9OMQ7JKxM5ues3nKEGwcg
p537
aV2QHWjWFnmyaRnCZTZLmFsQ
p538
ag84
aV1RD7YQI4Slfz9BEtZKUXYw
p539
aVQ1M9enyFKH_heblaJCO9gA
p540
aVkoJDoo1ihEkcg0oCt3V1AQ
p541
aVgYbX_IfkzWme4ItyXb_lgw
p542
aVAmO80QLpmNLGhyv1RLw64A
p543
aVyTen43M-Cml8UdoMAFYjwQ
p544
ag28
aV55bFcTs94lOSdjFVjwUduw
p545
aVTPGX7BhNG2CX3DV54Pt34g
p546
aVHffgoaAdup4MuPjqGZbycg
p547
aVHxXDxUzFAhsOgOxH78MyGg
p548
aVAWsOwlorVHRSpgPJy1I0eg
p549
aVb1KLk1mFgKgs_Yps3tgNLg
p550
aVBTV-0e5NwlevivEX3ONUyA
p551
aVIhjrIdQkNgXIobdKg6eFmg
p552
aV6sy_fTvzT7kYhgjjSdenRQ
p553
ag38
aVGqFwgMpqggQgYTco0AbEAg
p554
aVRTtjmOACubX5UwQeXEss1A
p555
aVQPemT5FntA7e_VBtYyKiyA
p556
aV8nGWw2SSiVuhh18NLVqDuw
p557
aV736PTtBYadJWFXVAa1V5-Q
p558
aVpCMUCCpch6a1tXhOt6RgrQ
p559
aVEEWKA1iHdWo7-uzOqnNYRQ
p560
aVPfjOmjAXdheO3XYcFXVxnA
p561
aVtJPaPZwRqFmDSEc8VEx9hA
p562
aVr38bIMzm5wWNq19mISncDA
p563
aV1epjSokBdKA-Kzsc5cB7pA
p564
aVcnClD5EP9vLoHl4JT5u1YQ
p565
aVMApTrkJdMvtJB59DqzLUGQ
p566
aVYwAMESyNH-fDOj9mjRd_NA
p567
aVOIhLVqFOibyXnZCTlCt43A
p568
ag30
aVomztHPc6zUDWglW3DD3dAw
p569
aV2F3Gl3ar7iWWhHulyylKHA
p570
aVBmLvrGbrYQqgxIsPNGfy8Q
p571
aVapmH1DwYMWrulOQN5fz4OA
p572
aVGLdIHOP5VUCdgAiuQnKmPA
p573
aVvNlJsfKKp968CZWr8J5xDA
p574
aVpPTxNIPYsktaFSQlXOpEXg
p575
aVQKdj8PFDEbxfgQ67oq8jZA
p576
aVTnNM0hvm0E5Uf9pnbwjt1w
p577
aVGvqBVs9daMVjiH27lwRNUQ
p578
aVH4G9AEUzEhkhd0Sxb214ng
p579
aVmG5gV8OWUTp21vLQqmoFFQ
p580
aV7JjUoVTJerB4csQ7g1svWw
p581
aVmCOvYk2ujwvpqDdRKXADjQ
p582
aVwwZDX8upwIFwDDlxhGbqiw
p583
aVGTVd0h1KIfBH5VyFebvd1A
p584
aVMfxOTtu7PnpSPCoED2xg0A
p585
aVE-7prgFltopAhSfn9xaySQ
p586
aV9AlWJrOHoEwI-IiuLyAPvg
p587
aVFhF64zTFzoWRXu_QyP8I3w
p588
aVelt6nbq4fRcCn7Enk6e7Tw
p589
aVHtRA98TnQ3BSeDox7tVefA
p590
aVTYZh2VnS9P6eJaHmUuRJQA
p591
aVOLy75I6KRDZEKL7S_-U96g
p592
aVUBpRENBE2Pj7JI06-ikfmQ
p593
aVWB8mPwmJ3ZfLlZOAxAB_ww
p594
asVCreperies
p595
(lp596
V-ZfUYXTphJdZuBTbfodP3Q
p597
aVqeoJCWkrXbrVZvVHpqargw
p598
ag176
aVepvLkQNL6MOvk3s6JlTntA
p599
aVZMqhKMjtdqVZLw11ja3ANg
p600
aVOeN94byxv7pOOFUxRSKCbA
p601
aVUh68oTljizn-Odad1UeFSg
p602
aV1cGyzWtfOoDiE8V0OR85yA
p603
aVg8vu1G_fZLrPpGf2UHk6-Q
p604
aVv50-nvBCZNf7nCNbyUlQLw
p605
aVFP3e7j9yuz2sWqk9lECJpw
p606
aVBbkF6j51IbcX-ed1f-bnhA
p607
aVZ_Xo8SYeAhhvUYK1rFsVJg
p608
ag361
aV9cFY3JC7Wx7juBqx7P7Y9w
p609
aVfdBaf_H31MY4nA4Yuw6MfQ
p610
aVzV_aclADLjx2KOql9F_FTw
p611
aVYNl2JK7qqYyHqKc4bbKivg
p612
aVzEyV47fOOS_UOG2gCQ5qLQ
p613
aVtVo28-PBAuXb5BPS4NBGag
p614
aVRn-uUjawlpd5Huk-Cp8vsg
p615
aVvYmQ5UO6MTtH8WcZBRnq-A
p616
aVER0c0-cVKhW2O3sjUQawXg
p617
asVCanadian (New)
p618
(lp619
V2YUKJyCFnXDijmCpqhP9pQ
p620
aV-nxOVZAb0sV0tl7ycYmxDA
p621
aVuvo9h0vGmPIMmvZBXIBMhQ
p622
aV8Z9BmuMj5PmQvfTyjtd4DA
p623
aVGInchz2mDbv3TUT43rm4zg
p624
aVgIfMoCGnhuB6WL5o0ddqzw
p625
aVgeOLR9EJ953SYOYP4zqPIw
p626
aVjtLJ0lfEA_GzieDh129tkA
p627
aVb9O00lp9noIppgWiv_WnpQ
p628
aV1Mn66SHHNLK4iYJ9_KUdOQ
p629
asVBelgian
p630
(lp631
Vyn8n83djtraMqtwcxJC1IA
p632
aVrbc9eyODP68T_DFzIYuNNQ
p633
aVumSO7veSVjf8QflZOonmlA
p634
asVTea Rooms
p635
(lp636
VK6AKMjAdCSe8xllsbyeL9Q
p637
aVsgnqFImVFaWEJDjYz71m0w
p638
aV0Kh0rV32K98T-ksPldv8uw
p639
aVcznOCtKLI3oai4u8pxKBvA
p640
aVDCk27lbp82tOEPSNCvF4lQ
p641
ag408
aVj3lZQs0YKMDAwKSbDRNY7Q
p642
asVDrugstores
p643
(lp644
V5ogUQdbCnyG5KIdfiYQLJA
p645
ag486
asVDim Sum
p646
(lp647
VjrlkSj1TR6HWBaOJ4AzwKw
p648
aV_NH_zAXlZqfdWXgbsa_WIA
p649
aV4UA11Q8pWrUUOZNF3jzQfw
p650
aV_mv3DhRD3L3okFXYjxX_Cg
p651
aVptAp0HWJar6Bk18HX--UuQ
p652
aVpH2LMS78wnk4nrj4KbHoSg
p653
asVFrench
p654
(lp655
VxhvW44uHfv-sgQiJLx94iQ
p656
aVrVBicVN6W_p9LyWcLyscgw
p657
aVwfS1G5lrjx_SGWBuG2690g
p658
aVMJMTsZ0ty0RCyUjF_6XVPg
p659
aVbEec28P1CziowM9LrNkNsg
p660
ag599
aVG0bkSEyElXerSXNy6P8BNQ
p661
aVT8DpRFty13MXLf6MB43aLg
p662
aV57VozB9tq5SbNst9nO-jxA
p663
aV2wu_RvBn3QYANniI6oD4pA
p664
aVwfO1xdAeJMb_miGDU19W-w
p665
aVVLIkcraglJc9XoumlTOQQg
p666
aVhD55NUiGDK7STQ8oy9QDPA
p667
aV87h9WI6h9cjNHxQd0FizBA
p668
ag43
ag604
aVuD8wSDibwTrrj5IcbehRCg
p669
ag605
aVxGos8tSzLwO3J8mEk3z_2A
p670
aVC7r6tp2cgxm1_VNEQueZGg
p671
aVzwNficyc3GVH5b8Y26Kv_g
p672
ag33
aVSFg-giZbxstaLIg4n-bf8Q
p673
aV_UxTQIGh45sCp_LDYfVMsg
p674
aVYVYHX7RCPjCBqEth2CS91Q
p675
aVjGHYiK17BNNQxBxMtIBbFQ
p676
aVsdr9otdH1OYvjSSAUi3zqA
p677
aVWcjveH0MyzqQC8lgKviSFQ
p678
aVR2-_hZIboGriSatS2kn7rw
p679
aV5iuo1kvv0XZMS0bUOoLz2Q
p680
aVyue8UWXtQ38ddVn0fqAn0A
p681
aVlYjXUWtW7Bv7R_7lmRLp_A
p682
aVdWoJKEoFPbCr5pL2Y0LkJA
p683
aVZiLCt6uZlGY61roYdfeqWA
p684
aV5XfV-D2ka0iAx8xxPBb2-Q
p685
aVPUATlg41Z_bnmOPWcPBt-A
p686
aVYd6UGyCCMxFC_XjTeM7Jmg
p687
aVqZXaS4c1jmpfMS_YfhggKA
p688
aVHI2j56tbcCIGJv5xa4-jOA
p689
aVb08WGnU7-_shQN5wdcNA6g
p690
aV8VMY2s1dHASw_CGYJeYSZw
p691
aV-gZ7yh4ewW0HOFaKlUvukg
p692
aVDwYN7mfIN77toOWRV_aj1Q
p693
ag613
aVhHosh3FWyX5HpWS6sKtLMQ
p694
aVLW6_jDk-AbuqwFNgjkJ_HQ
p695
aVi785Jfl5iWFfhAgscQAv2Q
p696
ag614
aVu6xOQgU6G8Uoru99BnhcaA
p697
ag615
aVY7mcDkhC2TDxZkfATmZH6w
p698
ag616
aV58cDJU4cub1o0o0B4h9GrA
p699
aV4HQcPMTeYQXLy8wBUSlsCQ
p700
asVJuice Bars & Smoothies
p701
(lp702
VLvzfVDlvb9r0fcGXeitVKw
p703
ag157
aVUu2E4BAKboSyNgVTbqdykA
p704
aVe9iDzpjO_yJ7zn3l7ION6g
p705
ag232
aVH7K1YI4ECl8oIY3Zt8qEsg
p706
aVlu1rX1xpg7hbcWPnfOWMMQ
p707
ag321
ag333
aVR69-tZlDA2D3zXqNscIHFQ
p708
aVpYZSx6aWjEnNhWnDsQG7mA
p709
aV2XoHEjKr3X7xSBkRi0zpZw
p710
ag408
ag418
ag427
aVyCAJgfTGgb0AbrhdSgvASA
p711
ag466
aVY-glzQVnKkWJoiutwCLFgg
p712
aVUX5bCQXsSUDdS3G-3WokTg
p713
aVRpYiAIiIpdAQXgJ-_f1YPw
p714
aV3kgft1U-KAVOH73Tnhm1Gw
p715
ag547
aVFte_pDdvKkgpLe6LiUij6A
p716
asVKaraoke
p717
(lp718
VHbK6IfznbVToEaKVC0WcSg
p719
aVA4kCvILTgfr_2cG0_yGNiw
p720
aVzSp9rLzeGCrvrGNUejN1dQ
p721
asVBistros
p722
(lp723
VMR-KdPaeWoKu922VHhtQcQ
p724
ag674
aVLsZytOTWT0QksMyK7YH5Jg
p725
aVHO63s4n_odW40Jai5i8AyA
p726
asVGrocery
p727
(lp728
VJY576sTpB3ljay2IAajZ2w
p729
aVSn6Urb4rcxLD1nFZibNdfQ
p730
aVv4ACmVJr7ZXGP9uEbHfosw
p731
aVrVf3Kt2QpqqtaluReavP3g
p732
aVFJkcyU_jT5quVxT_YyxFOQ
p733
aVLUCV6aaCVuRXk89_3oiD0A
p734
aVYJ8Ehqq4Jr2_xmtRe5aXLQ
p735
aVtjflM9icU-y6xqNntOXtOQ
p736
aVaoGjCDs2-_-pejJmv4Ss7Q
p737
aVJd9_UM-WFs1dW3Nnbj1LRA
p738
aVwzDTQ2rBUyVLptcWXQv3oQ
p739
aVOSAg5DHCb8fywZqFHWbOBw
p740
aVz1J0lVDuy7X7g9Xeha3jKg
p741
aVhlkCbViTRlQ5-lx8gopeoA
p742
aV8GUMO244E8CxfJcyJIWFOA
p743
aVHFx2yLuVdHSx9ij7JshQHQ
p744
aVTBJ6w1eqYNHhMYDARpBq5g
p745
ag365
aV5wAk4sBWukQ4WFIlaDrdEw
p746
aVWFM3IOVIo8aOv6ubROXWAA
p747
aV3ITYlKbTcRVCZqpNOJNUmQ
p748
aVJBiHdGSt-e0AuinVxz-Yjw
p749
aVL_-CZSD5aV-tl4lGgBpoBQ
p750
aVNDdd698xwCrCNAdaFhe-Dg
p751
ag429
aVpZL6Bn8b3fq25qw4A3eR5g
p752
aVMQ9PTbD-EFRUxhg0R5kjUw
p753
ag469
ag480
aVX_ItRaQ3xmpWc4nqQReeug
p754
aVU3s6Y7eDa5VH1_rW5AJC8g
p755
aVrCEKpvSgGLS69eKUC-tJLw
p756
aV18tmoI7dP8lloZOUF-i3qQ
p757
ag86
aVQn10NNqKN3f85VdK15VOLw
p758
aVbsXRu6wXmn_pRAGToCEPjQ
p759
asVMusic & DVDs
p760
(lp761
VndDb1erN_IQcaVLIDQhGMQ
p762
asVSalad
p763
(lp764
g162
aVrQZBjywf-SFDNjokmN_v7w
p765
aVk5Pv_-rWoBpdmNlBtybzzQ
p766
aVjznPYUcl1Xd7uS71uXIOCw
p767
ag292
ag312
ag322
aVAAFqfA0DUCqoZuuS1wCkcw
p768
aVS-Kez-jMkXSoOwwn1YOELg
p769
ag413
ag431
ag475
aVpeqRw3iAY7Hy1zbkoEY2GQ
p770
ag557
asVGelato
p771
(lp772
g176
asVFood Delivery Services
p773
(lp774
VyrXBjlv9-lszAsLu5jmUrg
p775
aV08KuvUqdONvE2YE9OGKqWQ
p776
ag100
ag409
aVj0nfkOogyh43lFcuUMlVsQ
p777
aVciyCvvGMTxYKTc96ztIA5g
p778
aVKGzDbWYbVRItq7_ubPBEHQ
p779
aVczSb6sZF4K-LqEHuqPqw2Q
p780
aVmhZL8QyPjuqUWePU1oPuEA
p781
aVPw1UAZJMK6YoRy-HhAAfjg
p782
asVNightlife
p783
(lp784
VHIPGr2gSEN4T73tjz47hpw
p785
aVUR9H6ZcjMjGhJmmITypI2A
p786
aVoB0ogXCEgNOv1qPdDXUtnQ
p787
aVdlN9tXw24o4gcREvSGNkgQ
p788
aVEHMx2IhI-_ooHQo0N-AnHA
p789
aVNZ3A0xYdnmIG68mZeZV6AA
p790
aV2b6BvccVTtPwElQreRtFYw
p791
aVIU9j37tFH_Dg_8rLkuqDSQ
p792
aVy-rxr2D4UEcWK0uRwKNLEg
p793
aV02A7EMn1GbOtsX3w8NwTAA
p794
aVKpL73tUI4oKr9uW7SHD7mA
p795
aVWKj7NYkcjY79SvaqIunzVw
p796
aVkj44upIDaMIPlYvsuweP4g
p797
aVgGvNgShksetPoimyKV8I9Q
p798
aVYRfDdBgWS4T80oJfKmVThA
p799
aVmklo4H47YWK7f18YXTCEoA
p800
aVGePFksdGE8VvGss4EnHNng
p801
aVX7SaMeMdYa76zmavVc2YUA
p802
aVuKB1eXRNNBq2w4-wUkusZA
p803
aVPSL_ln24XidWdTjnXgmkNQ
p804
aVptaI45_CQ-FFw5_r85xUdg
p805
aV-hcRvJodkrY-G1u9MZm-ew
p806
aVe6abKOxJ2CyEwXLq2tI-yQ
p807
aVtqUQHX7gsWK2d2rsUuUUMw
p808
aVvfat4AeWHMgamDTeM9xS2A
p809
aVgxMX5XA8dB3-sTpfmXb8rg
p810
aVOdRx4ieW-3E2Brv3MxfjYg
p811
aVjIn1YeBAxu--sf6JgV0Htw
p812
aVrPT6ak3-KvOJTxnIzYNH0w
p813
ag109
aVsweqBbas6BRylFBEDexGIg
p814
aVhC4JMUU_qjmD0Sm2KnbZww
p815
aV-4ppieQivAHq4flJXwqy0g
p816
aVBkJtywTAG-a9fU6rdaL6UQ
p817
aVj0lgvR3AAG1FL6qj9AmWEg
p818
aVOl8v3U-v4gq7lN0iIXqvXw
p819
aVUBYFFyRtAV9_-akBPjdoSw
p820
aVE_vKoJ0zvpfAcEkQGS4d2A
p821
ag111
aV3ZuKbcnze3lPMZtolpakHw
p822
aVTwKeUEsAjJz-pTHTg14agw
p823
aVpHDLRIG2Xu1_1mkGAbyEmw
p824
ag112
ag113
aVT2fJ0H6-mnzxBd5-Vtdbmg
p825
aVCqri0e5NnArzmP5oq5-Lkg
p826
aVVjag5dfulq_kasZFuUFevQ
p827
aVfUa_af0dVIxymNz20JlWpw
p828
aVjK8PNNtv4RI6m-xd-tGjPQ
p829
aVtSAMc47CU5l2N1H-EvxtSw
p830
aVXD5ybqI0BHcTj5cLQyIPLA
p831
aVkZhzc_qD2mUU_bFbcs58Dw
p832
aVYvAxHHI9Fkatv-NTnbmKkQ
p833
aVSr2dHAFeam7x7K0ROBuSjA
p834
aVJdWplSS3RfBFamm4FshtcA
p835
aV7CyLGxI_9R0R7RmNFNICgw
p836
aVzrcHSLZhTZL_YBsLMOD9ig
p837
aVXO2t6MaYU7m47CA2PTdY0Q
p838
aVL4baYyAOwqZmTNnqJCPfUA
p839
aVztY4uPNUTWMN9LT3L5mD3Q
p840
aVehUJ9BPE3PpwHGsS3rNvTg
p841
aVf6d_dU47QW-CZqfLPM8wzw
p842
aV1b9Xu7N2pkqf2zBiLQAQQw
p843
aV4o6C5dFjyjBvF1g9st78NA
p844
ag719
aVQbFqlHYbfbeLW7oKZDr-bw
p845
aVoYN2AV5oYv93Z2NevvOKmA
p846
aVXlcWm3OdV1QrSPF_AwrlTQ
p847
ag114
aVkAZ1CDYB1W2bZMaQCcoN2g
p848
aVYDD0n84xkd_nHmkmPorG5Q
p849
aVs2Wb3UxXVPU9CV0R2shSuA
p850
aVuCeb5saLPmw9OMo6ZdnZbQ
p851
aVpw6iZVYPTi-TLKxbggAvtA
p852
aVWu7wEakuGfBWsrNmFZ1KdA
p853
aVddMVvuSQ6zqzpzVql-pa4A
p854
aV_PvljXZHQlUmL8SuOXF8ug
p855
aVGKMydEdaiww2coboFDEQCg
p856
aV7SjpKZHp3Yhnge3eKH7yvA
p857
aV0xspBrJdMgP-R40orCGdnw
p858
aVVcCJHqTFxr181Fp5foHd9A
p859
aVWSV-t7fuDkvZonTC-MHbPw
p860
ag218
aVkOqVXdqRzWIEK7XiQWxmJQ
p861
aVsqkSG2pAisfCfgtfkig2xw
p862
aVYvSqThnZr9gVfeJNnleQBA
p863
aVA3D8gBGNmt51kvcI0GkaGQ
p864
aVvdaBA6_jZCQeMkHqCpxJ2A
p865
aVDZntO-whEi638T56xuu7qg
p866
ag767
aVmRWNt7hxoFzo5XZaoSC7aA
p867
aVPhDrgI45kZi08bv_H3LU1g
p868
aVgEPH0lm8IJcC8dkkwHJ7fA
p869
aV279Aj_4Hd7EhoAZOiip42g
p870
aVO3BVb5A0djGMi8jAfr0-Lg
p871
aVJtZDLIn8Mskxg2GRK-FWpQ
p872
aVptq3pjCo_9_3ySob_GybXA
p873
aVGDELvDNJGYooK__jXu6foA
p874
aVECbqZjGkhPpW258lImXZ3A
p875
aV1i63faxXI1TQ7pNlLp3IPQ
p876
ag239
aV65MiV69VtIsGI26wQNfs8w
p877
aVoMy_UrvOsjcRw0rb3pGAtg
p878
aV9akB_uHXymKe8e5kcQmw-w
p879
ag669
aVmBFRfHk9MbJfChLUvsuc8A
p880
aV5q1rfOna_PlzdTI24MpqqQ
p881
aVeXH7pwWGVPu0564Co0__8Q
p882
aVs4Sw9YLTbxpjz4L5IFv2Mg
p883
ag250
aVGtiICS9WTE4UB9ryII81cQ
p884
aVZNmK0IikawbTaN077HyQPw
p885
aV17lU7tX9Gu9R0F_HNUjiKA
p886
aVwvI7sZ1uWX-KGSI1JEFoyQ
p887
aVRkqQC9cvFa12pCWn2leGig
p888
ag116
aVaYEuMDcx4Ct45TOK4YrOuA
p889
aVPJD5FVhRStYMfA9AhsyInw
p890
aVbWasMbk9JZLQLQf_EUr2Sg
p891
aVVAkdznBlCPQ7KFvm-Kma0g
p892
aVeDuQMHorChFKUu1Au-xhjg
p893
aVyswMnHbSPhZoTdGO8a9ckQ
p894
aVkSAeXkiPDNzSnFFDxqjgvg
p895
aVEIel7JpHLrPJXhzSVu5KGQ
p896
aVxqrzvZtSaNoXA6g-iflE4Q
p897
aVq2EXggq1IIrw20YPSfvJeQ
p898
aVynyf1lySChQSQUmEmbqM9w
p899
ag271
aVsUuCeyNvHWMieO1GpfOpcw
p900
aVWNdpG8Wkf8tUY_-ZnaXdIQ
p901
aVdn9lwYUxmhs_mLKPu7L25Q
p902
aVNTptlHZ97fLyqYIoO-wc7g
p903
aVC_EtrXTygRX5RTUOKtO6Dg
p904
aVo0WYo6-P0PRdShWYGDazZQ
p905
aVlLsG4YKZfM1c2QPKeZFvgQ
p906
aVTFxcmjVIsW5bdW7rilHHpQ
p907
aVwJKoeKsPk7Zp4_vWJKm3Gg
p908
aVcddsQYuoK6qF0BM-r3k-vg
p909
aVaPdz29vOWj4fBlLlCBM7UQ
p910
aVLdHt0nc2RJ6BBvR0itYNpg
p911
aV_dyFKoP9aoYty0Ot_lW0AA
p912
aVeYIuAjNXVkDriaVZLO5pMg
p913
aVYnPF-O9PSpWOeR_GgoNlsQ
p914
aVzRozCiqiTImwdiaD4pOUDA
p915
aVGSeXuEKEMUnRCSbigE0btg
p916
aVcE96KgmjaqZaraGOIVaHJw
p917
aVL59t1jk6ONNKPLWG0nLN3w
p918
aVIMnTtFn3c5qZ7gW0gWqPzA
p919
aVPGUuVJEzM0H-ZMB6m1D6Ig
p920
ag117
aVe57HVMhbHJ37nQ363YAaYw
p921
aV50UjA4nDdqypN-hBUOAPmQ
p922
aVmpVZG520RL-K1YeQi55ZPg
p923
aVcg86rnEnysZ2lBfE9RIdOA
p924
aVmtpoFcw4x8W0C9Qhs_PYfw
p925
aVYfKZh6Op-PmuKyzZu_DMGQ
p926
aVJ9Yufym0BqTYVNTqW-n3ag
p927
aVC80OEuGcEohYs-vbgCppAg
p928
aVGt6FEod3mBqbuigjHpRYCQ
p929
aVecujkuhIwW3j8fO3N2Ppyg
p930
aVODURDhURWmZr6b--O4nt3w
p931
ag118
aVCKUo7hidOxWdPPu_nCTenw
p932
aV7pgmsGEqV7yawGM4b4fRrw
p933
ag317
aV26GVusr-8mreOg9Qe61rSA
p934
aVjW3WsLh_bpqQuTcciZ_o-g
p935
aVWbghvrJETTvt9p7nPcfjAQ
p936
aVBxmSFfCPQN_bg24l44a56Q
p937
ag119
ag120
aVmFJYIVsGzhvu2K1Fd6VZ9g
p938
aVpW5DXTpKnw3y0fopipbJVg
p939
aV6fz6hlH9LDkZ9jwtwBVOEQ
p940
aV2LrIkZB7mOwu8-9OVhjWfQ
p941
aVSflXQLyOxjhExpWYJrB_bw
p942
aVZoFnfG7yrQWpvGR-etdGTw
p943
aVD6SCh4BwNb52wZIqXdS4JQ
p944
ag682
aVwYV-Fbym_EIgq4DIEiqfhg
p945
ag121
aVHMQ_PUJR6y01NOoS2_vJdA
p946
aVzlJ37GVxuy-9wfvWqpPm1Q
p947
aV_Dc5E16rCL16j2xsUHw18Q
p948
aV1Xd1RFxOR9dFcfmqki4ZeA
p949
aV39upAlhX03gi1bbYBfZS3g
p950
aVLLMIzRMVcu_F7gwfdY_wSQ
p951
aVZEHx7DVqZpH2Z__DqdH4yg
p952
aVeM8d9dpDiVvMrJrWwIRAVw
p953
aVyh2qNse2oxdRdB5C-BSNBQ
p954
aVKhsxSQnY3yUHDQFZKAn1Rw
p955
aV3NlMNxNgvTAgSI1rnscaxw
p956
aViZleRh4SOtf4GquA5L8WXw
p957
aVssgdbhozdm74S3lHHx_w3Q
p958
aVjeTfL2kCyBtmFGSrSQHqVw
p959
aVdv56VSw7tClqOuTYUrOwJw
p960
aVoOjuZqUGe_JZLrO0b4XTpA
p961
aVAO0yGThNaUYuFmdzZoyZ2w
p962
aVCzP2dF6SYBcBEeXC1ifiTA
p963
aVvHzWvZYbkoHY_071J-lPRw
p964
aVWdy7J_EOL2lvDKSscdQ4Pw
p965
aVt0Jua5Oo9247QorSQ1WzPw
p966
aVjqJ49WeQVYmkJkOj4VDF6Q
p967
aVFJHMRVZXW3D7A0krDSG7Kg
p968
aV3d0NZCGOG41-ntHuLyRjCQ
p969
aVjRp-7p3hHPTGzVoLeO_1ow
p970
ag368
aV1jf4fZV8IdsRy9yjhAix9w
p971
aVn-0sVDLw6kkK5On6vZ30Zw
p972
aV9Boi3wafVihOkZmNqksC1g
p973
aV0jQI7AktAB-m_cg54wY0aw
p974
aVtR-Vvw4MRi0ER38WBeKYFA
p975
aVu6r5eXG_-Bod_aXVprI09Q
p976
aVZyEllxWUk5OglTfDtaySQg
p977
ag123
aV0AG93DSyGOrpUsx6NV-zqA
p978
aVHsrBr49livt6XtKbEzuHnQ
p979
aVhGqMLoA1P7INNS9z-yvXSg
p980
aVeJ7mv16H-CimLFk-sWzChg
p981
aV5Qg4di7XxZiR8RJ62hYXag
p982
aVW_1fNz_p9H7g4Kmjdv5x8w
p983
aVtJwomYMNjpd4A31rDMXMCw
p984
aVxNJsEyQLm-HkNtRkAc4-CA
p985
ag37
aVHc3d_UDV7qE30o6WeQBEmQ
p986
aV4YsbILBLlYEMXPjTvdHqIg
p987
aV7MN8kNyuKDZtoSoVdZDCpg
p988
aVq2CDww5vB2ZvLg0fjEWrvQ
p989
aVDUwG608JDZJpkuChh9zrjg
p990
ag126
aV0doEkYP_ePnDsqP6aXwPNQ
p991
aVBhjVNGhWBeWx-joM_xwS9w
p992
ag725
aVqOHUAgrN0HldxPOniJtpXQ
p993
aVLr_x2ey_DQs_8ACS-1t7rA
p994
aVoRn1Mjtr1BzwyN3-CE2lxA
p995
aVurOeEHDr51cqdNd4Pca2cA
p996
aVOoBW8j67vk90L5a2SF29Sw
p997
aVE9qP_rUhjZdgwJU4Nyl_og
p998
aVe5bI0nEjKHM6xYRc1hb3vA
p999
aVdM7aCIJT_cWH3BNgMi9dNw
p1000
aVuCsyRxfIfiRqQQuK_JlfZA
p1001
aVPJIwOJtZvgg03qrakVfxwg
p1002
aVln1y4hkJq7eXsId0e3wLkw
p1003
aVLm-oxbCXTBn29ejD2i6q_Q
p1004
aVP7f8_zKyP6uOBdj9vbQpzw
p1005
aVe1rFwYU94C5RC9zP9H9oXw
p1006
aV9znPyzc0cS8GHH49R8SUaA
p1007
aVmMbrhKD5kE5pLBi76BQbpA
p1008
aVV63CGQ96PTNlz0xu3SIMtA
p1009
aVcHmAxfJY5GBGvl2nbY_BKA
p1010
aVIfLTw-yFMpuiqAdYRxLv8Q
p1011
aVOhCRB4LIacN6O27EZYtF4Q
p1012
aVYo7QnukCasfJlkB96pPr8w
p1013
aV_5BoZ_C5zEl5M_MxT1W39w
p1014
ag720
aVIlkzevKMF1hGYEbrd04J5A
p1015
aVAi1HXdWdqvnoel83vPb6Ew
p1016
aVTWpiHjsd0c9Q9OG9l38SBg
p1017
aVky0cUgRt1Bye3cxgxXpgYA
p1018
aVZJVhCAjBeRlzLhgRVVJD5Q
p1019
aVZHjGy7QUWIHVS66PxTYD1g
p1020
aV-jYPhaseRPICBaFvM63Qbw
p1021
aV2vUYE4Pjtgw8rjpPg4RMGg
p1022
aVqkw4xWWgTufvBs1NcxsFnw
p1023
ag127
aVVbP830GPTYFP8_JeXdxriA
p1024
aVKPFscTq_-jGPla0cNQRUcg
p1025
aVF1qPjasn0R6-j8sa6iYNmA
p1026
aVhOv0yRX4Km89-7vJuzPteg
p1027
aVy1Bw86Rv98bDYoH4ICDSgg
p1028
ag128
aVnZZ3RQGCU1MICSagBYtwVQ
p1029
aVzJHaLBqUYCXbc2Vyc1-MXA
p1030
aV6v31gzvJ0A_8-JVPjgcF_A
p1031
aVWxUTo2tUjcN5AxA6UzRFfw
p1032
aV76STjBw88WDHzfF2YLiJJw
p1033
aVIj5vTLLpmulfCsK64jGGxw
p1034
aVwKaal1Y4D9DIJPkHVNyP_A
p1035
ag721
aVxDosQDBA7H82xv6__mgjdA
p1036
aV96NAzrXrJvZY03JTXG1Hog
p1037
aVfL_ilXgNUq_j9vMpZwdcLg
p1038
ag452
aVL5D4CIyAEoPTFQriMqS9uA
p1039
aVFUTV2bDp12RX2_4pnbYpAQ
p1040
aVOZ-GCbwkmQjz5LmsSUG8GA
p1041
aVHAXTUHm3RFucIbNZSpIU3A
p1042
aVFk495HaokZDrGkAG8s_dlg
p1043
aV78PHG2xHOrvYRiZYirEjnQ
p1044
aVj-0PFDm86n7PeK-QSs18mA
p1045
aV-oPCKxHYcy9DR3d7wYIq4w
p1046
aVqnRO5swUiQ2dNHuHRbAIzg
p1047
aVbXHbLuxyBZemyB0j7GJbTA
p1048
aVfin2G7SmfC2QRfeu7wmnbQ
p1049
aVLkxmc6NoyERTOrQ7W5GEwQ
p1050
aV7Ndf4rAhlKHc6yILXbPftw
p1051
aVEl5jyQjxTl1IYiyiQJYoEQ
p1052
aVrRmH0Shfb8hj_Tk0zFEOLg
p1053
aVl7itffzkAI4uJjO3FhQwzQ
p1054
aVaUIK3MIz0R2ad5A3C1S5aw
p1055
aVM0o9CXzYH_k6vgG-0vVkVw
p1056
ag130
aV4tA5o4H34UjlhtDUIufmCg
p1057
ag131
aVUC9UDBSDRM8AUp33EeFiXQ
p1058
aV3EiV23aKk9-SpJbz-51jxA
p1059
ag692
aV4XrI7IdQWaHPF1xGVK6XYg
p1060
aV5zyibT__dkE21sAyLb1qvA
p1061
ag132
aVM9qxHiUu3WscHK7f1PoOHQ
p1062
aV_BG8WroxU2JbZSij6VWx_A
p1063
aVop9C-x7swLj3sDjyv9keqg
p1064
aV3juObN8h-4AZfaxLDhPtQw
p1065
aVVtMnUouAvqA6NbrduP4trQ
p1066
aVoIgx5AEdeBnsibH7GJc2fg
p1067
aVP_J9-_UVjX3uhv1Sas9Kaw
p1068
aVyoem-KW_Jln0LqsdLwLeUQ
p1069
aV8polKN4I6fJx1t8pPxogVw
p1070
aVif_WO0OL_d1pJRztdQXuDQ
p1071
aVL5BGm0ABF3P4Njp3SiiLFw
p1072
aVcLrsYJSVjDQbaVikQSpnbQ
p1073
aVOsL5GapIoQ4CtXxAiyvtoQ
p1074
aVL2c-qKZWumCmOCR-dqBLrg
p1075
aV0drT-6ft3Bn30YrFadEKYw
p1076
aVpW18p3XZrinTIDONZiBoig
p1077
ag628
aVuKKPcYWi4xggNJ3y8Uv6qw
p1078
aVEqySuYAMkWMuKIVZ8dAmvA
p1079
ag134
aVm4BqtiNnAh2duwTHs5LcAQ
p1080
aVtl5dthD9F3vGCww-N9kSVA
p1081
aVwp5tEemRSdZZIp8Vk-IFBw
p1082
aVHrED44acwUngPkOWS0GUZg
p1083
aVyx4IYpg9MGbrVqNdZwXX_A
p1084
aV_nC2ytNxfhOoyJydlJVtlw
p1085
aVbKiYncygmFqKC27CZe81TA
p1086
ag519
aVrdvWYwtOW6Mw_LTNAqlsQQ
p1087
aVBnffoBFNuGmNAksel7AX8g
p1088
ag104
aVRQxLNvAra_MUUPHdhukilA
p1089
aVJKLdvBm0AblJmyEgJaa56A
p1090
aVe9KCQvafAkKzg5-rb7Sihg
p1091
aVSzVZm-W1Od4dblJUhkZ1VQ
p1092
aVGIPgrn0JygrRTANHMeRtxA
p1093
aVVJW_lfjWxofdtpuVRPY0yQ
p1094
aVlwL27h7CpiHfWkyQlSiJnw
p1095
aVNRO1_u7mOE-ffhXE6ShUHw
p1096
aVa_A8RcUn4-aNJJwN1-TXIw
p1097
ag135
aVd_IBp5wNVn5wDlNkblAL8w
p1098
aVbzZ7jQ-RXxsD0heDIUzojQ
p1099
aV7o2KJGfMVpaYnaYnvbNpXw
p1100
aVuf1etu1QmvYNPj04USjuAg
p1101
aVKPSqZ737VWG5J2NRRLJZuw
p1102
aVpSVSClbcdGWbpLTUtJuoRw
p1103
aVO1FsCaaEKNMV28JNMZhoLg
p1104
ag136
aV4RMHlggaIdNibPUJPVEd6w
p1105
ag137
aVif5aZcWOPM0FDbG8SZ_D6A
p1106
aVjceb85EPRhjlVtsVG41nBg
p1107
aV93afWhCcHLuJsC4Jf4sQPw
p1108
aVld5H3Nf3xhUuvybL1uMFng
p1109
aV0nXqQjJjBFDwQ8Ebfv4CQg
p1110
aVut_1gB1F-m-tSZwd32w6hw
p1111
aVmN-ZcMa0nceD8Ji332MAGA
p1112
aV5o_VBYSmwVUTydZF46rMjw
p1113
aV0ouRW6X9JIzOdE-c5NEpsg
p1114
ag38
aVkuLxF4v6if54-wuHS7UttQ
p1115
aV4Aqi2sddDr58PZ-DexltmA
p1116
aVPuCwZY9BOBhySzFg6BnXqA
p1117
aVSkY-3itZowxA9lByHVX2Dg
p1118
aVuOxHLnePU2wyTqPJ_p7ryw
p1119
aVkVTHnhgYUw-Pmr7wgDB4_g
p1120
aVTUSMa-OtnNJz9ZSTAtpSrQ
p1121
aVWhANqUQu_SJIuD7g8AXTAg
p1122
aVQTP6pGpqQKg3Tm3wAcMKIg
p1123
aV3yhBbXfyluyvIfmHL2NM2g
p1124
aVRnRyy5gd62sytRWMb02koA
p1125
aVm_zeXzkj3btfvRJiPVw8Ug
p1126
aVnCWZR9NRc2grAwP1jq33PA
p1127
aVflNkg8qVJjrePaycB9o0yg
p1128
ag138
ag629
aV8L5UV0VfZCDNExznV69aqQ
p1129
aVf_0wqRwfgK99DC5EUg7ZQQ
p1130
ag46
ag782
aVa8zs0zfAHa231nGGUutvrQ
p1131
aVGGYiQbbMUTmg7fVXdD_zMw
p1132
aVEvionh1Bc6IExcX5tFJ9kw
p1133
aVW8eWYE6aFExgGzlKBtICNg
p1134
aVhHcO50egg663PN2v4hxeYw
p1135
aVLwX2vbzttWYAdoBoVtfvRg
p1136
aVIUm-Bh9up7n2hQigcylf7w
p1137
aV44elblyuC9R2DRK0PEf_lg
p1138
aVO5jX_6rUv-Fn9yFYLLHp_g
p1139
asVSpecialty Schools
p1140
(lp1141
VppgoocYga1HPYL6lsIZvnw
p1142
asVDive Bars
p1143
(lp1144
g790
ag797
ag803
ag811
ag836
ag840
ag867
ag868
ag895
ag925
ag929
ag119
ag943
ag123
ag1002
ag1049
asVItalian
p1145
(lp1146
g786
aV3k4K6l7SP7B4fzq9KpHy0A
p1147
aVAYuAIf2KkIUF8HaMyorwzQ
p1148
aVOpNrObgtHgYijZYOU0yF-Q
p1149
aVwMKJxxh_agN85A54BdX79Q
p1150
ag91
aVIIsJN_ilLI36zGAF3SMCCQ
p1151
aVWs5jW7K4OgADEly5cCmsXg
p1152
ag797
aVMhyCVeRdAlXaCfWlti9GDw
p1153
aViy0227sqhdDr1pWVc3LpCg
p1154
aVoukyW9ohk2ZFMHb8DEtcIA
p1155
aVUkHcGDxoCqo2GLcRnU7Q3A
p1156
aVbnBMEhZ_a1EC8gHo6t4lYA
p1157
aVUR4o1izRUVX5WanCXW8S7A
p1158
aVDC_zGdDwXAT4jXRgv4nL8A
p1159
aVoiCNeV8BkuVmKQnDLj634g
p1160
aV1vNMfiptBbvtsc_UD1QQ-A
p1161
aV1No_yNKrXQjIpPpNruELwQ
p1162
aV06eY-W4sjDQjhVDjnhJi4Q
p1163
aVzYymsWEVEy02KA2KES1faw
p1164
aVZkzUii8amI2Zr3dCR6l97w
p1165
aVY2JUQN1oF9BZIlItb0NAIQ
p1166
aV2uf4Swj6fRoZ_WOaaVv8bA
p1167
aV4REtzXpQYy8dVev8RjWbSQ
p1168
aVQQIjsdcokFermi2ugoD6ow
p1169
aVS8ne0NpkaDXWNhhdXGmxvg
p1170
aVKnFmjro-GGm6Yu-0pK2vlw
p1171
aVh7ohjVDwsgTfzYmS0yRORw
p1172
aVY0KfUVy3PTc6T7JkwzR6NA
p1173
aVT40IJ9g-DSHz8_7QzjfuDw
p1174
aVmfDkSweR9UTSdv0E0IpJdA
p1175
aV2crmRB4gANOKDX5tl-XYBw
p1176
ag193
aVw5zZ8k4Z83q2UyYsCrlwCA
p1177
ag199
aV7sAcXreoQqyLdMnNPcr5hA
p1178
ag845
ag206
aVBJsVuk2sK7bE7vqCVxLgKQ
p1179
aVfy8ssAoDOOtg3Y2iqfMHSQ
p1180
aV7Fu14nLW1y_JVXulWKvTmA
p1181
aVog3pzv_PuT9cSYbiYzoB2w
p1182
aVE6AZ7qymJWky85VFeeN0gg
p1183
aVzOtmzrVbiiUjsqrPBLPq2w
p1184
aV1tKdQG12Z-hhYnpmzPp0yA
p1185
aVgqETlVKT3LIAL59WBoPBpQ
p1186
aV5JIx8r3rCNgdbYRVVhotrg
p1187
aVfhXHxDR59t7oQG8BjQEsFA
p1188
aVIezlwRZyHhU4y0lyOqdbQA
p1189
aVuirnfa_m6ITWKMN2JBLHvQ
p1190
ag231
aVBdivOzWd-4dkFm29_5FKIQ
p1191
aVD05NC1UYCXIgEniwWemOjw
p1192
aVIm68PoWLtYHB7AcxGfoM_A
p1193
aV0jFW_nmfQEowZyJNknik9Q
p1194
ag237
aV4VdGntX6dKc-xQ_nFlpdVQ
p1195
aVfUBqSWOI5EkyXboVvov4hA
p1196
aVvZ5-JXlJS75k8wmPNS5U5w
p1197
aVstD-LTFFwlmBdzU-0aBntw
p1198
aVGkK2HM1mTNqhR-LSVpdO2A
p1199
aVrh1bJwxoh4-nFQAvZdP3Yw
p1200
aVZynj6SK05RlFpbAABO5n0A
p1201
aVdeiC4MxpjlCsSCnW6czpTw
p1202
aVPVU8GnwQ5y5Ts10O7vzySw
p1203
aVLZfaJq-jWLAn4L0xCFiEXA
p1204
aVz2hoWsyUq85P37EHvMw3rw
p1205
aV2ZX0Uhl3oCPxQjwGwvllpQ
p1206
aVbxhVylKGVL3Dmh9h7pZ3hg
p1207
ag266
ag269
aVx1GE3QyCSL8PI1VMq7jGrA
p1208
aVVrlIP1YgXwvCQlQ1PTExkg
p1209
aVvMB7YTcNXNiDEhUSF1SyeQ
p1210
aVq-QYas8qfOvVas0If24pvg
p1211
aVufYKds6AjKs_NwOb1mDhwA
p1212
aVjTE19UzZQNSXdgyqZNBJGA
p1213
aVKXAr5AT-K-_qKVR3WsgGiA
p1214
aVnh1-ax9wPNCqskcJYIWogg
p1215
aVjd1rD7jr-_zI46Oxh5lDLA
p1216
aV5j3i_3X9qF0o6VU2uCdQtA
p1217
aVmnZHNoNiIXJW3eRcg6NdUg
p1218
aVrFNQJo_dV4UC5VCvLMyUbw
p1219
aVL7J7eDgJTIctG8JzvMooMw
p1220
aVX9fLg0LjQZfoUcb18i7hug
p1221
ag741
aVaEhrDSlHNgfILuF9kSuX5g
p1222
aV5CpjCprdRDPC8lNMQcFiww
p1223
aVVZK2NvkvPs2RPnaxhv_i9Q
p1224
ag677
aV6PdMtDkLAg_kDYCEi6VBwA
p1225
aVjLU_9Gp6FVqLPo64hGYUsQ
p1226
aVv5nZgLkiE2OHbRnYkvrbDQ
p1227
aVh_JhJIz1jP2VFZiM0UO0DA
p1228
aVttZRucfe1fcN_DX2ZGZ1Vg
p1229
aV8anBAtlbtpQZru9ejvVrhQ
p1230
aVfIkxWG7ZE-4lfRYF3WsXVQ
p1231
aVDn-6ZmMqHW_ATU1I-nrNjw
p1232
aVcbddL2q8uRA38RwycB0FJg
p1233
aVcrqWT6VmTS-WIq53qMKqOw
p1234
aVZ6_gRH_m8FQlKgsNkZKmTg
p1235
aVCiS3oaKZpfgXwPjpw-Y1gA
p1236
aV-U7l8el--Pw_cpuJRLJvig
p1237
aVRPKnhndXvWHukeZ2e8stYQ
p1238
aVwcoUb8LOB6yGhOcS7GNXwA
p1239
aVLXXAXCEiU4nCM8wScorQHQ
p1240
aVZs4jhNaai0csUdh4U9lU5w
p1241
aV7ZjXpKwP78R-02w12kLT4w
p1242
aVB4a4d-N_fVg4dEuI-7UnCg
p1243
aVpNNB4QSFaVD0-Gm3EMtH6w
p1244
aVgeTFpY84Tp-nVTXflnxtDA
p1245
aVFmUBsawA4YSnqB6yDv_pdg
p1246
aV08k0jjos42MrcMxtiOlPxA
p1247
aVPOL04pXVtUJ4aQguvZF_Pg
p1248
aV5D2grc_hZGoCt4UNncJzVQ
p1249
aVwZkZmjZEJDraLJgAalnHvA
p1250
aVqfNX18O5FdknoUjfI0n-fQ
p1251
aVnfHJNQyVw4M6VTx5bqvnxw
p1252
aVX1KTKksxwFTg_t21iWPMMA
p1253
aVMiurqMOiXO7f9LjBrgkzOg
p1254
aV6ke_-lV12SwP0ebcGFErZA
p1255
aV5ve6nYs2T-zaBQEcdf812Q
p1256
ag959
aVQzJRy39dMq844mPzj9Mlfw
p1257
aV21VIww54d-f7UV79PIolBw
p1258
ag624
aVs34eQFAIiP4qwIdLhYHmUg
p1259
aVt5Ggj9n2ApvawNWTXvwMAg
p1260
aV09E4gjiUN_nSqaTprCLD9A
p1261
aVabA0s0uxoeOn7zNm-1dDxw
p1262
aVwxrlMnjni_UanASIp4dq2g
p1263
aVMgVcMxtMetUfujhgquaXYA
p1264
aVbW5drJ68TJVFHOdxoYLJoQ
p1265
ag974
aVXxmziAeRqMKwsDjyyjVgeg
p1266
aV4FnRjCWmf0IS_oX3CQ80ng
p1267
aVWW1OGeUifaMsDIwphitvUg
p1268
aVLcjkkd6LYJ3BN9gNPNnzEA
p1269
aVdZwZlfR-FZkRmA5D4PtMaA
p1270
aV7fcTUnDEe5w4MK5fOayxVg
p1271
aV_21B4W3qjnl8lcxDYJE3kw
p1272
ag684
aVEcgJ_PI0DBPP1UyLCF1zxQ
p1273
aVSjHffWyYrmra21OJN78SJw
p1274
ag995
aVffp58kYSK7dJGs5ER-5txw
p1275
aVtP4B0XaGAqPKsWwtf74LYA
p1276
aVOV3MdfxlUaXKOQqwhumyMA
p1277
aVJSVYDfdYVYFXkkn2K1t4oA
p1278
aVbVt5eOVdpZzg83qlW9Rl2g
p1279
aVEagYyiLaNjIVJ_HFDwlGBQ
p1280
aVAFGiRIi7SJAVS-xXp1h80w
p1281
aV7YkBo7MUnlm_fziX2mNAuw
p1282
aVYgGbeBYxOSmRi6CFn04MoQ
p1283
aVuj8u2FWO9JQ5z2ouYADWZA
p1284
aV89L537OZ9afk2zcRybc0AA
p1285
aVnbNJyEGW-l6DCEwnCp7SoQ
p1286
aVXmjtiJeBmoqmQMU1rDV-Hw
p1287
aVsbhc2A8LyjCRTKwKsFTmZQ
p1288
aVvg3HbmTm9wbk5Ijgo2OtyA
p1289
aV_DPEAIvsH92phbwh2W-ADA
p1290
aVy73DjDtQkETleowB-THSdA
p1291
aVmOA4HaFj86ukUv83SVGBxQ
p1292
aVyqwQiM_Am4H_E3-Vm8z8yw
p1293
aVVIGDtiywmy3sOEwUIiXaKQ
p1294
aVLdwDfQS8bBKUGSa6gwxjiA
p1295
aVZdfe_wTw6KGOMOeKRq5WFg
p1296
aVckJavT6MguqzFYTWBzG59g
p1297
aVVpHFOao2wBY0K0xucAkGPQ
p1298
aVf5VKr38kHZnUfedd2UYEXg
p1299
ag1033
aVqhz-qmRp30-khTbJ3DjnYw
p1300
aVqIwISTsz_2DXVqEfuTDYng
p1301
ag1035
aVj54J0Ky4ruVbN_NTJ3daFg
p1302
aV38Od2csYpkZNDV11W8UR4Q
p1303
aVFh2vlptKk8jyedzCDPbXbw
p1304
aVvoXoIsapBR30q_7PgxVeAA
p1305
aVuneDMp_V88OjqdrGM9K-zw
p1306
aVMMHPceVb926Y60Tzd1aTOg
p1307
aVVxiXcXUH8JWee5W7_6Uu-g
p1308
aVio6U2O8cdqq7TA1GpoZEIQ
p1309
aV91meCwrmojpFj4XGecn34A
p1310
aVTz4TFCGhYnt9Were41DcWg
p1311
aVJ9xVQScnr0lYWl61_mLXMA
p1312
ag463
aV_VQbAFHvYi50fJbfxlY6Yw
p1313
aVsSYjYvETob3JKqTt0TL93g
p1314
aVWLixYfXWO1Q0b_L4PsQ-5w
p1315
aVjGuzp8hsKy27ZmK1jsvgYw
p1316
aVEoPd4SI9-mnkyb2CJcgkLA
p1317
aVL1vjUWTTogiFtDRyBLi95Q
p1318
aVSyNPVJ4_b0Dpx-inn-_hvA
p1319
aVtiCdi3sz6PlKc6MOPEWo7w
p1320
aVF6ReGpF94EKWzh6dSRVIrQ
p1321
aVwlbTsPLxHom0lYdROsngsA
p1322
aVn0i3N8zrrgzDtEx7zNPCsA
p1323
aVfIILFLV1LUIQG69S1wR_oA
p1324
aVCxQ1m2iY4wQpXC64tSfWgQ
p1325
aVIBwhFsMu78fFKY4NlyvKog
p1326
aVf_E3YrQw9RJdsn-8Y_ih_g
p1327
ag1070
ag502
aV1gu0NSUbbFshx6buNuHKkA
p1328
ag1076
aVpH72Y8aqqJlq3bgtj-d3UA
p1329
aVoTVXbWibbQ_VFvKgnBjaMg
p1330
aVS8x7S3RLf6cwem0A3SlVew
p1331
aV6X8LoS2wHZ10Tp1245bTPA
p1332
aVpIrSHmLYW6Bdjiz-HHWd1Q
p1333
aVCUgWVhCyIVeuoP31RdaVFw
p1334
aVwxoTNNb5lkyCmCtuYcX0jg
p1335
aVMUL-dQKFHUNh6y4cGaSNQg
p1336
aV4tgm6KADoZz_hbukxqK7sA
p1337
aV9n0EMHuHbli8XVSFVFm1xQ
p1338
aVBvARTl3t-aztQ9HPKc9xGQ
p1339
aVztbLCSo15CMqt18D6f0x5A
p1340
aVsK5bPI-QDa1EYwVpBBBxfA
p1341
aVhlPTTfZftqs0qQxphcYnbA
p1342
aVqJhQyrSVh_yMOqV8CPG0jQ
p1343
aVKq6uUzRw-iaqe4p7cLLmBQ
p1344
aVJuoeBgL2SKbDURCs10SDng
p1345
aVC6jKwYmzHztO7OCex9j-YQ
p1346
aVu2qq7sP5Y7VNRTGixKYIXw
p1347
aVK8tLlUcLvCY4VZ-ITQ1sxA
p1348
aVubjbE_LZIYS_i6yg8S21-Q
p1349
aVdUd7fu2BLXsLXYPiCji77A
p1350
aVQyQoG2AueqEIUG5V9khbJA
p1351
aVXrd1vwESRmQb1QqNYRrv8A
p1352
aV0grgvnq4GgoY-estWytUhg
p1353
aVbQHqrTKCJAtaMfZJSxGYew
p1354
aVOTCgRfMMM5QtqffLJzbZeQ
p1355
aV3XwVZr6Jj2DnZ8B2W3RboQ
p1356
ag1113
aV9PZS-FLHMU0q2d-X8tGffg
p1357
ag1119
aVKsvAr-BXk0gStGrNQGa1Sg
p1358
aVzcNCTs5zaMeq1HyzvHQJGA
p1359
aV4FFXF1Q3l-cejVdln7PMSg
p1360
aV-YNES0U-xc2pNNqkQr2lQQ
p1361
aVO5AgO14O17ycrjtaZMUGTA
p1362
aVkVPJ3Wr6XtAYDEGXXeF-5g
p1363
aV_XwHwYGqtZtjUIdoRh56Kw
p1364
aVtsk2EE1wAC6yk2NSxJrgFA
p1365
aVdje3fr7pL6_OjA_OhFasKA
p1366
aVBcVx7vnk1CivTpB45SYDUg
p1367
aV-66ui3HXJkd1T2maRWb8yQ
p1368
aVUOG1vQhRWxiM_cQYvNAjrw
p1369
aVpdqwYOSRj5Ujpcs1vJEpxg
p1370
ag1132
aVxBceRIaK462N6sUHEHtAbg
p1371
aVacwj5shqN35q1Yy_6KrT7g
p1372
ag594
aVviiKRWphCo8u5LWEtzlCmg
p1373
asVSteakhouses
p1374
(lp1375
VVFslQjSgrw4Mu5_Q1xk1KQ
p1376
aVKCVy3xDOhMZBCbbLRsXvVw
p1377
aVILLYK1PwY2F5c__Dhycopw
p1378
aV1falTXAnb_0MOgw4FkgSQw
p1379
aV58C-JxSMV3h0rI4z8TH_TA
p1380
aViTLUYOtU-3QYLBDvhudwOQ
p1381
aVnbJSDQDMPopbVf6ASB8a5w
p1382
aVZdr0XTPN2lraHtztBYAwAA
p1383
aVaJMJiCDrj1RsNxWlVTe_fA
p1384
aV_9idMQKPPJgdENns5Fl6tg
p1385
aV9tHSgPt0_icRH9VNJqG-QA
p1386
aVLD4sRu0631KEidVJ2nnjQg
p1387
aVD6jDSCivbVSjqmnu1RF3fA
p1388
aV4R8Y_VX1bm0XrjKZoUM8Jw
p1389
aVm3Y1w0bX8qCrUGTL_t56aQ
p1390
ag896
aVezfOX2z0EOFH6UOQyrkRpA
p1391
aVN_TMJbKGsISp9qZlga7GKw
p1392
aVArGw19nfPgjR28TTfgb7iw
p1393
aVzR6m1J5Y_3RndYcLIRROeg
p1394
aV326yTsKZp30ncqYQLaq1Cg
p1395
aVaP38xlYvZVmvAVi2yj7YKw
p1396
aV8SlAYQ4DY9rnUus6dSeEDw
p1397
aVuGwwPkw2AEvKkVHiSufhzQ
p1398
ag941
aV6x8gGn-Sig4jWrv9XSSVrw
p1399
aV1-WF9A4i-0fI8XxCFbqrTA
p1400
aVBVd9T1KmyuvPSldelRihvA
p1401
aVFfVprOqc7cZr68fZ1nKKpg
p1402
aVWd9p_AlZTnN6pBHmT9YemQ
p1403
aVtbfbSDu347UPplagdAVuIw
p1404
aV_qGDRfTvIwUqFtI1mGI8Rg
p1405
aV9NraUlQPN24vBQ7RHCjYDg
p1406
aVPBmfdx-tC2D54FI3HtcKww
p1407
aVCLfX-_6CngIOjJslhNkTCA
p1408
aVlE_jefQ2F9PSjtNmNTSFIA
p1409
aVBZ90gSrU0PdZTpGBaXYMUg
p1410
aVkATS8uEAIQfeD66JypmgaQ
p1411
aV05VzqWz4aIpQ0CxIX6etsg
p1412
aV1olL69fYVkRlz3_tv4VBYA
p1413
aVmjJH2IVATkFqWdleRc3dmg
p1414
ag1098
aVHimyYoJuralZPoamcF_00A
p1415
aVnX_uivVVgTO7Te9xanyuPg
p1416
aVsCsytJYwfESzzIHZnwxb2Q
p1417
aVRS5k_zDSkamBESqx1NSQfw
p1418
aVkYMVnNaMcnDIjmNAH4uF3g
p1419
asVMediterranean
p1420
(lp1421
VMnThD5q-m9oLigW5SoWMJQ
p1422
aVLp32rSc3OATt1P0Upa4Jxg
p1423
ag792
aVDWFaxnDtfWzYytO8n_xBFA
p1424
aVzNxOVDKl3WYNFZDjtXAc6w
p1425
aVgrtRbOhjogmnTXToPwFoNQ
p1426
aVvpxUqSMqPJyhTisCDSG1_Q
p1427
aVLW1svH-IFU7LAgK1giqi7Q
p1428
aVEMXF_jbhx_GNniMnG0uNVw
p1429
aVKSyA0CR6r_zR-43uiYtdJQ
p1430
ag813
aV7wHzc0DUlM6P498oc_UBYA
p1431
aVHYR0_XYOGgH0Bh7wgbNkoA
p1432
aVP-2zSdHB1rudqS5oGNIlqg
p1433
aVS16YsO21x0MOHWWhN5HxAw
p1434
aVPmCzpKyHhBN1RoTEv6Edag
p1435
aVHm6JLe-ruo9368xtfpUz7w
p1436
aV7SLHQDbrpp7XPKVsPfuiqg
p1437
aVXIdmWw-OMx5nhpuTSdxYlQ
p1438
aVOVmlCWPmzEqHWmn7VTST7A
p1439
aVT9Xn68YQex7EZkKHxI5sVQ
p1440
aVUFXysUpA1VwB8HWhoAisjA
p1441
aVkVvJdMA7xdllVEEeXjngjw
p1442
aV-tz1m0CuiFnW9nsRTTtvOw
p1443
aVY7L_6RIC2Rc7bizzXNp12Q
p1444
aVwuFhW1gVqMvaB-AKPQDrWw
p1445
aVMgV5LM0rX0yrVMu9K1kXGw
p1446
aVdV40IwZPi5Y3OIdnJwt3CQ
p1447
ag879
aVE1R-eyNDimJzdtajqh9KsQ
p1448
ag1205
aVRz_EYBuygGYz-xCRZ7042g
p1449
ag264
aVEPMHuTHu46B123ivRIZ-Xg
p1450
aVhluBhGYt7BOKhCP4M0qDDQ
p1451
aVq3wAHs3OXu7rqUcEQheVcw
p1452
aV0c9GdZvlBR01tJclKA68aA
p1453
aVyo_WAOnE2pPHCQduq_V_ZA
p1454
aVFJlMfEtr7E-uTzUxspuzIg
p1455
aVtj_fehXLxdGMjyLY-mTXRg
p1456
aVPjBhKNeR5gCnQBnzt15ARQ
p1457
aVkGgZY0d0c9hMbXxzdrLgkQ
p1458
aVM8P96GmGImU0KOrFMfVCKw
p1459
aVyqQ6Umb2Rc9mJcsgxswt-A
p1460
aV4DS6HwVA3d89wAGkkm5csA
p1461
aV3TEdx5lOu6f1rVLVJSpxgw
p1462
aV5rTrfWtd1Isl0v8OK_iiCw
p1463
aVPF5wXe007WT1Zyt3XWKIdQ
p1464
aV1d5Ycdlytf8JWZmWJ0NVFA
p1465
aVYh-3IjAFCgq1Ubtdo9TDcw
p1466
ag34
aVsIsXmah-sGpHaKBjU3KOFA
p1467
aVOqKuUkYMCWShOHOspYLGZQ
p1468
aV798-eBr6EdOJktDT74fj2Q
p1469
ag958
aVeaa6cqFPfh5n8RV9k7RhYw
p1470
aVDA17vkEvB_oyZHfrp8WrGg
p1471
aVGvox18F9QxsSS9qG2O8E-A
p1472
aV-m26JWL6XkeX0g74f_37MA
p1473
ag975
aVoCPvHNQAv0kSBw8eFVIJRg
p1474
aVGsEv1JV7ypTEHYuC4jXvTg
p1475
aVP6v7D8OUoRjOGrxh7QbYpg
p1476
aVdj04gZjAPRChPfVvgmDwGQ
p1477
aVo0BH0QUNSFNwxvMqBNxwRw
p1478
ag379
aV-QNnL7C_z7NxiCarq3VZTQ
p1479
aVBmmqOY7ROy4cE-gpu59hYg
p1480
aVrjW33uw9o5k1x5SlRaZfng
p1481
aVwxavkmm_Pyy3MmYp7ILlMw
p1482
aVbsnIDtWdeSBD38M--960rg
p1483
aV7bG_BRrmIaAux3r0fcfr5g
p1484
aVRThn3_Y6qN8MsqZKWa6WyQ
p1485
ag726
aVo_lhnpunYQ8YSlu7vso5Ng
p1486
ag1004
aVIDSpUSv-Td6-y8rC4JuCsw
p1487
aVt3Y_KMMrkxkFdmakC16nBg
p1488
aVY-kOD1LX95yz8y0t-6cx6w
p1489
ag422
ag1017
aVhHg8ADXX-0z0-oHGySXNFg
p1490
aVe1RoEC5uvzXnLXbjuK3ZSg
p1491
aVoQdRE7ipO9GOTfXZ_dSyow
p1492
aVqgEx4cus-f9vgc5aBFJ8fQ
p1493
aVLr8JBVx3SWvpBG7NcfdyoQ
p1494
aVCYXdwQeDSv8vtiEjRfkcOA
p1495
ag1031
aVlgO3Zsijjc0sTuKpwI8NsQ
p1496
ag1039
aVWaxhDYWQmZ1FGM2ChY7_2Q
p1497
aVjsEo_iMOgULB7w8zGfRJeA
p1498
aVKNTgHNKzJ809aTPMQYD9OQ
p1499
aVfsUV0zRa7tHAGAXaDtnAPg
p1500
ag1046
aVeSnm_YS5lBu8pC_dXKwH5A
p1501
aVF2PXb9KSH6t4eLycBPEJhQ
p1502
aVv13Ur9Yf2EhvGlvPAaFNeQ
p1503
aV-_FvwOM3_wku2zHiLjibgg
p1504
aVfY0Dpw5a3i1CMjMuT2SaDQ
p1505
aVADe114o7Z4vb1O6HkM6YEA
p1506
aVPtnj8232ciZyaKAdDIhpdg
p1507
ag1062
aVOJKJFaLl54tY00HR3hpMSw
p1508
ag1327
ag1073
aVy4CE_4CHTWZ6oe3JCH-AoQ
p1509
aVHBvFroNOFThC3luF-c3grg
p1510
aVfREIiIPMg6i9GR_ywHbUnQ
p1511
aVmMWPowWhaWGtKnmWQu59Bw
p1512
aVZa8mJnlBaqKKbWefGR0v-w
p1513
aVK-2s-27wildukxnsRRoc4g
p1514
ag1347
aVI7dol0LhBBo1J6cIVPbPhA
p1515
aVx-XYM7yiS8SMOAZ11DrKTw
p1516
aVH92b_Ikez92uf7CQ-pjoXQ
p1517
aVBKI9lC-Mn2W7TtjEInsaLA
p1518
aV0LCgN42C9H6iqClFevdiBA
p1519
aVEuKMv2uDlSq8nopFGpFF8w
p1520
aVYHI5RsnXxsmZcGv-vPMH3w
p1521
aVeauILKSn9EG2Tev6pMclVg
p1522
aVrb0h5mLEKRiaPEpToVUjiw
p1523
ag1359
aVT6-x-7k6BxCYA_8T0MpUOg
p1524
aVI4auljUVLWyxzPSK0jEqPw
p1525
ag617
aVQW4w0JHIhUtldQ72xU-Ecw
p1526
aVc8Fu2uP7pg4GcqjlSlu4tA
p1527
aVnjm3aBtVvgs-eyv565Y0EA
p1528
aVC44mTlN9hDsy9CGlgRQ8sw
p1529
aVVyjGdT2PxT591CRrHGM_sw
p1530
aVFhMXLB9RGE3BgO3F3VKZcw
p1531
aVM1SUyz8KGdVnntu0wty4lw
p1532
ag1373
asVMoroccan
p1533
(lp1534
Vtz_BWXOSswOpActxGCPBkw
p1535
aVrMvexnV_OrTRyiZga_Cggg
p1536
aV-8H1cK_UrrwnL2oh_ts2Vw
p1537
aVvuzvj4O16WB23WhOgrrd8w
p1538
aV5N_gm8wchfQmDvQFNeAtCA
p1539
ag1072
aV3Fl9FLuDyOiqXOU8iM2Aqw
p1540
aVdn_BCrlJMZF_3UQd61lOVQ
p1541
asVActive Life
p1542
(lp1543
Vm4rV34xa02aRrv_EXlDuWQ
p1544
asVDesserts
p1545
(lp1546
VkKFUNcLklJ54zZNUk-7yjQ
p1547
ag165
ag93
ag197
aVu6UTyanpF-VwmlTd3LJK5g
p1548
aVugekAf0_3hreoD5VJQjkCg
p1549
aVnGjDtvRtkNmlzgoT3TQI5w
p1550
ag602
ag603
ag15
aVahAvfTdZnblSR6S4ZpXCtw
p1551
ag278
ag287
aVTQZBxrbilZ5mrSn-y8A6Sg
p1552
aVWYt-PO5iJQFS1igvVkXXCw
p1553
ag1469
ag345
ag20
aVY09UZRMNC-BnsUOEkUZMog
p1554
aVEAafCOFtOjTDq7WNwHFn7A
p1555
aVrhKH0mst323aP06SE0dIRw
p1556
aVahZmjfQNe5-wJ6oGZJOaRw
p1557
ag453
aVAnJhF08tsgKl5RMR3YmF5w
p1558
ag1061
aVX8Jdojm5FTq6qAQfS3pwng
p1559
ag642
aVt-hVd2gazf0rEnnD_NPsmg
p1560
aV8V1ceChgSzcGUV6jC8CvyQ
p1561
aVyizsyT2dq-Bv8X7bBn5fHA
p1562
ag614
ag697
aVsXmUz-g62cYQVyFbGeDq1Q
p1563
ag616
aVkvxxUwFJ8hcCdebVdJ8xrQ
p1564
asVDelis
p1565
(lp1566
g729
aVcWC1aSv6ql0nBzHX_0a6MQ
p1567
aVkhdkBG4SetzbtvkGZpyGTQ
p1568
aVPk8IEhv2o0VI7avWndDuXw
p1569
aVo-q9Uy3VUV_mrOBhIC48tg
p1570
aVCxOApc8E_VnFvwYDbaIoSw
p1571
ag152
aVgNMAEldBHzkUSKNS9adw0g
p1572
aV8BUVhDF9yLzzthhFxeceYA
p1573
aVooNlNmDvLdmPuR_b_b2Rww
p1574
aVS-xUsS4RKzBrOnAjy6lnyA
p1575
ag160
ag161
aVtpJrlhn5QPI0ehDyYjN7qg
p1576
aVdW79jPJVpzlTKGF-1JAsaw
p1577
ag731
aVNQAxtnKoBHWxZRrms3GJOA
p1578
aVn24Vn9DpMwDW5e6MPjOnrA
p1579
aVN_7H_bcdjIPToXsfCTxglg
p1580
ag185
ag186
aVQxuZGiHF3jnatCUmI41FmA
p1581
aVDD8Qp8dOOJSRg2KeG67ZbQ
p1582
ag200
aVQeK3lOP-CTZS72YgeXiiqA
p1583
ag208
aVPXWGgHRDcG6mxuOJTAX4uQ
p1584
ag1548
ag211
aV9pib-XNQyPYukVCwAfQAUQ
p1585
ag218
aViF_De2ALBUg8D_7HY8_MMg
p1586
ag221
ag225
aVfQ8c9S6jitKS5RT6S-ziGA
p1587
aVFX1JMSDcHZjXSgrQNqtYVQ
p1588
aV3r9WCjQYKDZeDv1oxLGVwA
p1589
aVoBGHg3P-xbUiXBWtSCqHVw
p1590
aVOrCXDG0nyWd3mjrodikI8Q
p1591
aVJa4RizBvwZwP6GhK5fx8UA
p1592
ag1199
aVppFCk9aQkM338Rgwpl2F5A
p1593
ag254
aVqnN9cTU6tjr9c_W5fzbc1A
p1594
ag265
aVJI2Nb1vvgtELvMA9JkIFDg
p1595
ag268
aVYA1V1bpw0PPjAmztikduNA
p1596
ag737
ag269
aVLElQBiDw8HyU_LrbjP8C1A
p1597
ag1208
aV55rcaEF3hnXfw5Tu4KrpFw
p1598
aVnwqqhE3OaumDpqA53KG7qA
p1599
aV-tphABJRkegXV4Fr1ke4FQ
p1600
aViOYrrlk8yOelEaXDsbJIVQ
p1601
aVdAlHpoW8pBbD7ws4lRCyig
p1602
ag277
aVK-wyXXi5lPM2cwaV9_vXcQ
p1603
ag279
aVP0ox-U4cl3F1Fi1HOWNsGw
p1604
ag281
aV-pu1QGWFljkTl7orQxvXWQ
p1605
aV_yW9xQZtkthXXmS2nzO0XA
p1606
aVrQUlYwxTm_D4U1hvCSyWBw
p1607
aVZp3ofKb34G2g63VqiujvcA
p1608
aVrwvRluwyjEaMGBXftcHsFg
p1609
aVheTUR_TGWJ9iYiiEWnikXg
p1610
ag300
ag742
ag304
aVekHD37Trhyk8aeNp_3TPcQ
p1611
ag744
ag313
aVgxUUb_bPNZL4zRjuePRp6w
p1612
aVs69w4pdsTxjGEefWWBbljw
p1613
aVA6Wlh_2LFsUMQHBhfTebMw
p1614
aVehjAtbJVSyVWRBEVLr-PsA
p1615
ag745
aVwrYG-uz5gXTcZbvArSIS3g
p1616
aVVo7qe3ixVtZNUSTPY7noLw
p1617
aVxewPU4T___oBXmGeqnOLIQ
p1618
aV4dyulLTGILN4wsfZ6KBmig
p1619
aVGVPEk8fvR7_46_5lYch_4A
p1620
ag365
ag370
aV6molt13ozLHKz68XWEUclw
p1621
ag1269
aVX2KeJ4OdlkzTEpCETaaoCw
p1622
aVgrvzbRo-RMUYTZGzA2yUbw
p1623
aVosuamA7_d3iHOuniXiGu3g
p1624
ag746
ag992
aVNrqpD_89sjXwc_1ZdJ7BnA
p1625
ag747
ag397
aViZYDZvXoIT648EZOnEP0pQ
p1626
ag710
aVGmkj8Y2T2-k12O5Xt9u7Qg
p1627
aV7pMyF2qq9pqMfzLZEvrohA
p1628
ag748
ag406
aVXKNuWWCgUDCGlSUIv6vJQA
p1629
ag749
aVGqqBWV8ysYB48_jLPMl2bA
p1630
ag750
aVhRd-E_jU8zGrvB9TJp5GWw
p1631
aVxbxG7JMGdC-YjqqJb9rUag
p1632
aVmTR-fjHhEVFZycJlLalxTg
p1633
ag777
aVErVB7Ffi21zrVeF7E7F5YQ
p1634
aVDiPNysYpR12bQVevbodNZQ
p1635
ag436
aVtxH67ORSC9m_3F_ZVqoXwg
p1636
aViwA_nF9Keu-FMZXNCU6COg
p1637
aVd6zooCvFxThM1SGye7JJfQ
p1638
ag1035
aV298_2BlF7sqUMnEo8W7XLQ
p1639
aVozmMymxyx_EPnCGlIGe1lw
p1640
ag455
aVkTSejIjmKGsK1Erwdser4g
p1641
ag461
ag467
aVNBeX33C2lB6KMqpbSueHjw
p1642
ag480
aVX0lOAibdIzV9OsosF1hunQ
p1643
aVzacuSO56p7Y_YCdUjqkzIA
p1644
aVrw1OFTgmUHaBLK5EdftUIA
p1645
aVcf4ygT87Krgbo9cXvSikVA
p1646
ag506
aVw7z-vJ7okUql8JkXhXIoow
p1647
aVTmUKRJhi3pFsNlpo2XYITQ
p1648
aVqGRWrctKByGGoWsVjE1SEw
p1649
ag528
aVcnNKs5mq3JhA-Rr_lbRoWw
p1650
ag755
aV_7VDK3nLY0TnGW0v5tL-yg
p1651
aVQpEGWNEKeXzYC74gZjpVUw
p1652
aVDu2BdpVqty9eC-NPDkTUpA
p1653
ag756
aV5Km8zcOdOH529kSrAIIBpA
p1654
aVDLaAK2VYMGd-vodPtp7aoA
p1655
ag556
aVYQEmlrEHQ7QaoHTcu6QsBg
p1656
aVqBKcTxYgQzIdIlEYqv3qJg
p1657
aVLeRqKjHbFqC1zXjaiNI0_w
p1658
aVE3mDebSEqO6-pOA2RcS8QQ
p1659
aV8ryg43cozq2DXB6igaSAeA
p1660
aVO3BMVu3V1XBdtg4LjLiowA
p1661
ag573
aVXZFuFuvKgbsY93ZHX7qsWQ
p1662
ag758
ag759
ag592
asVBed & Breakfast
p1663
(lp1664
V1RvK3oVM-sQkhLgZnDgbCw
p1665
ag638
asVVenues & Event Spaces
p1666
(lp1667
g798
ag1158
ag53
ag1665
ag856
ag1544
aViQJ54YzzImrYF-4WXhS6gA
p1668
aVfdO9p0nIhrI6aIR4WHgq7A
p1669
aV52ojLC0inUwelypP8HJS1Q
p1670
ag937
aV7YssNiYWoqIdbRFMgalwCQ
p1671
ag135
asVMedical Centers
p1672
(lp1673
VSLro53YjUoGrbp6ESBOHgg
p1674
asVPolish
p1675
(lp1676
VU_wLGkq86qyd8yzpKyFswg
p1677
aVSA4Qag0p91VQhXAIQt5RfQ
p1678
aVhC28OvxYF2fkb9ZbdS7Vsw
p1679
aVggT0ynhCLlp0eAahXdq8ug
p1680
asVEducation
p1681
(lp1682
g1142
asVHospitals
p1683
(lp1684
Vp1o1nyNbfpbnEFlxr3GwKw
p1685
asVTex-Mex
p1686
(lp1687
g791
aV7sBIv30fhszkBsv0kkSBCg
p1688
aV0PnSAQI-Hjkttz4CnJ8wbw
p1689
aVHW3VMO1ejK0j1mPwBvOFBQ
p1690
aV73iN5mRM1KDNm9sdjveSfA
p1691
aVMTosaEVCSW1wapIWZXGkzw
p1692
aV2PWmnUV2Leb2Loj0TqxCMA
p1693
aVoKfl3rnxVrJHw3XhdD0ZKw
p1694
aV1dhPgc7E7IzzpxjHM2LphQ
p1695
aVNB4mIpWTVMMx0Gzdy6dwaw
p1696
ag873
ag908
aVD20SyluEFcRRaEmwspkZZw
p1697
aVJtQI62zBQWmXOIUT2_RoIg
p1698
aVMyU7EzjeeWriyDwkenfLqA
p1699
aVTPPk2Ii3rMcBN7qylcq9gw
p1700
aVkV6s56DgJDaLF44VTxlzBg
p1701
aVKneifO67SqmCEki05VQCNw
p1702
aVI8dgF5_UENHKJwb0k8J49Q
p1703
aV4_Z2QGkLj5QICAaSv94gnQ
p1704
aVf_NI3wFfoo89X7BptoDrFw
p1705
ag1038
aVpvlM--HZY1a8SqMXiwEz1A
p1706
aV_1itCzaA3bDVdPSwNCNPtA
p1707
aVu_9J2QYtTpIDor1GYMltRQ
p1708
aVST2sDaGdWr9k1mjYiGO7tg
p1709
aVRfcbgi8Nzz-0R8AfLwuCAw
p1710
aVLnJ6x6oVib3AHRbg38ZzKw
p1711
aVwxckIcRTURJPiHHAFrHg5w
p1712
aVAL2_2Txr1jKG0S1FX2EhLw
p1713
aVezIfIJFtkvEHxP7BEUT8bA
p1714
aVIxCBZSKlqLNh-kzw5TtOCA
p1715
aVXjC5H-uKRrsctioXxuCMQQ
p1716
aVZ7r_FJXEyfyvVsyv2y7gFQ
p1717
aVMGOt6JSu0NPI-DKhWRTTeA
p1718
aVrosGdyYpXWtuxclvOjmSxw
p1719
aVfsqtrHKBUeucacxeX9FPaA
p1720
asVEvent Planning & Services
p1721
(lp1722
VG3-STn8vhQXsPObIqlBGPw
p1723
ag1428
ag798
ag1158
ag161
ag1576
aVhiL5mQL0N_kzX9JxrtqqwA
p1724
aVulfy5LAm3jUU7BktYbtHwg
p1725
ag53
ag1665
aVezgJKW02TGymRkmLb8zzwQ
p1726
ag1578
aVysOvVK6jj5xTbVJDNf_RsA
p1727
aVqGwauY_M4HkzCla2eJpbVA
p1728
ag638
ag621
ag856
aVd-fJaL4vVFU3MR5ymbJM_w
p1729
aVCbfX2Bk37IP3xbXLNnqbfQ
p1730
ag1586
aVbDfcpkyVlSQUvA57HjDTKQ
p1731
ag1587
ag1588
aV7ROpZOsaDK1V7Zl_2RaPTA
p1732
ag1544
aV0BcJ3TmeXf5J9-fB0hrA2g
p1733
ag1668
aVFwO183blfDg8g6sFv-NTsQ
p1734
ag265
aVHOyvHkqJNt2bkExXJ4A3eA
p1735
ag1600
ag1601
aVajzCNUASrrXr4YRNqNEf3g
p1736
ag673
ag1669
ag285
ag1670
aV4Bh6-piI3tqORZE1JX50YQ
p1737
aV4tcrfrIZAHwAFRpbY45PqQ
p1738
aV5ZU89ikfTJ3CJBh0Zgb9Xw
p1739
ag937
aVrgQGVnhkxsHGURJaU5r_HA
p1740
ag336
ag1251
aVV1cAPn-crzodT4aV6CAAAA
p1741
aVCjJUp3KAs-zl1WCekVVngw
p1742
aV-LTJvlqZCKtlNADDp4gO8w
p1743
aV1eHZYJdIAZJCL2HCb-lPXw
p1744
aV5yC-Xx3Z1Z8jpMEolyCIeg
p1745
ag1671
aVMBISWEvAzDb710ZCyvNu2A
p1746
aVljWDHJgmcCq2bniaMhJg8g
p1747
ag1635
aVsjpsGKPABZDnABCv3wYtUQ
p1748
aV4NzcJju3scPqlceyfAqZKw
p1749
aV01xOhO708S2F_ONq4wLFXg
p1750
ag1304
aVNzW3tibQ1dY_kO3ka1yEKw
p1751
aVIRuT6vyKBrPWq7__LI4Vvw
p1752
ag477
aVjNumpugSUbF_XraDG2eQNA
p1753
ag487
aVnFSHscgM53UPmPwANGmMzQ
p1754
aVy_OKiP2QRmgHwfkijJuOTg
p1755
ag528
ag1650
aVnKiCl9cu5UZ9yBETm_BTiA
p1756
ag536
ag539
ag135
ag1345
ag1563
ag1715
aV21Hhze2wdfGpnS8v49ydbQ
p1757
ag567
ag574
ag1371
aVg4pgc_lnkLchfuGXmUl1oA
p1758
asVInternet Cafes
p1759
(lp1760
g261
aVR_hKp1hS3oT4BAEyjjFLlw
p1761
aVjh_owKpd10vqcKnrGGuDBw
p1762
asVChicken Wings
p1763
(lp1764
VLaW34gZqLnWjiWF8pl-tvg
p1765
aV6ivIw93SATyp6Syc-_k5Eg
p1766
aVzzh3XNV25Fngor_E72aGWg
p1767
aVcXBOQkBmYXl_YxnCTaaFNQ
p1768
aVO6U58f5g16gG1ST7Yg24BA
p1769
aVCKqHfvcqx73-Uz0xGMHL6Q
p1770
aVpZ1avI_jhHXlBfjQmFkXIQ
p1771
aVtHLJ1pDaaHptb-EbFM2q_A
p1772
ag865
ag247
aVx--X9kEBF6Mg15-gDJ7MFQ
p1773
aVRjPkEHeXQHDpplx_FxhGpw
p1774
aVysED_563t-tMmi85Y2GIsw
p1775
aVa3-znGameOY1scTqN8ZWXg
p1776
aVYERn2kltXVj9936i6T4Q8w
p1777
aVN-gK6k_HficaGfEILyT5cw
p1778
aVIl2csF4ZapaWAkQlFSyPTg
p1779
aV2cXqhv6kgnkFTrzG7yGfJw
p1780
aV2fA8m0RA7zr8xZPc91v2Og
p1781
aVl0S-NH4orOpb1zIechesKg
p1782
ag998
aV2lJhvC4NzRXAUJd-Z61c9w
p1783
ag1016
aV8Mw2PtzFK1YioyzQE1wFxg
p1784
aVpDtV_4dxKqOOwPqyAMDhYA
p1785
aVFVzhWmsHWdU8gG-MzCad8g
p1786
ag75
aVz2OFlLGi7aJdcPxFfADgxA
p1787
aVlSS24T_8LX_Ucq8YXZpdHg
p1788
aVGnhwlC088_OxQCcW0-9kKQ
p1789
ag1051
ag779
aVSVAdEqsvzw0IRwPvJIi_Bw
p1790
aVSLzTjeK5EWCdiAQs62Oj9A
p1791
ag510
aVhI9SS8or178ESYI3g8o4cA
p1792
aVhGNI2d-tCmVwUWKztDDl2w
p1793
aV8Qwo0gf_3G3C8JPFWbsrog
p1794
aVh2XXaRsW_0qxuAl7OUjhSg
p1795
aVdKv6bbqs6Otq6YKNWby4uQ
p1796
asVDance Clubs
p1797
(lp1798
g801
ag837
ag898
ag914
ag963
ag976
ag1028
ag1053
ag104
ag1122
ag1125
asVAmerican (New)
p1799
(lp1800
g787
ag789
aV8lLs3dsSN-Am2_EtNfbXqA
p1801
ag1547
aVPb0vN4yPgwXn2TOS1ptjjg
p1802
aVKIpFfgli70e66WWb8kcW_g
p1803
aVjI4yOYZ7nZt1Yv_9GolxYg
p1804
ag794
aVJwETCi-1Ix4SKg4cGTwxQQ
p1805
aV6Ax2uEsGQCE-2Oxqoe8BWQ
p1806
aVJQPvIx1aJVu_ZNoZ5Uqsbg
p1807
aVHBzT2Yld4Pdh1QihBRQy_Q
p1808
aVFbycyr3KEjDQ4wO9AStmvQ
p1809
ag1571
ag799
ag800
ag151
ag804
aV0ggseJ7x1t-I-I8GA6knjw
p1810
ag805
ag807
aVspuBsfi1HgngM2DllCMMWQ
p1811
aVw9dsNR2ZGM2kaN_F2WQNag
p1812
ag109
aVJj1mkmnjXOFtzl-rVjGRbg
p1813
aVPuTHnd2I7mhZG28wQw8rVg
p1814
ag819
aV5FJED0PQkZdVL1VYVcZaXg
p1815
ag111
ag822
ag1665
ag659
aVtzcryXhKROS0PTXopJc6kg
p1816
aV3aKcY6xorNOMVfzgmdAR1Q
p1817
ag173
aV0ttjaSIeSFzlVpmogF4I2A
p1818
ag113
ag660
aV4CXO92H2UsgSI4koZNTBQg
p1819
aV4NtLqqnDPJjeCbrys1zpdw
p1820
aVCVIXJlbQsikFI9XeElGe1g
p1821
ag826
aVSiBhiwJdO6ivfnMIDzOT9Q
p1822
aVe3UEtMoXBaOLeMFfXzld5A
p1823
ag830
ag662
ag831
ag833
ag834
ag1437
aVDh3X5NuzAcFZSSl72a5lWg
p1824
aVO04KfafsuYLT8erKjN_nBw
p1825
aVXXJObvVU65SjUl68jeBMcw
p1826
ag1728
ag835
aVj0kyZSg3uMwTO9hde-raQw
p1827
ag844
aVY0WP6ZFx-CSYmsbKogLkhQ
p1828
aVo17psNgeW7JqIzyADk8Yfg
p1829
aV03K9F1xumPgdRiohRrXyfw
p1830
ag663
ag198
ag846
aVEtHDmvirGVYBXX3kUmQQrQ
p1831
aVRIzlH7t_wVhiTFklmYC1RA
p1832
aVFPTTiCzjDgBTzcanfKXsDw
p1833
ag849
ag666
ag859
aVqw5gR8vW7mSOK4VROSwdMA
p1834
ag860
ag861
aVqnH_8XayoYj-1okCCwyK3g
p1835
ag863
aV7dMfZufFaN224WuIrts44A
p1836
aVHJChzf3yFkJfPNBU4vC8mQ
p1837
ag227
aV9H1o-FdVnFrwKDDqTB5oBA
p1838
ag1447
aVvI34pZUeUQWoX1aNTY7Rww
p1839
aV8EC62cW5_kfdsO8ERssUMQ
p1840
ag668
aVkBL0Z76KLUxBjvZS2djZzw
p1841
aVtGJTMrSWb6wufN3m_yGOvA
p1842
aV-4wyQhCgMdR4LE-Dd1YH_g
p1843
aVpCwOCE-cycl6cMEa9O6bZQ
p1844
aVGVqmpOsG-pDp9NltaLfu-g
p1845
ag874
ag875
ag876
aVTZAmt6kCPm9Pl3Au_8nogA
p1846
aVtjR11g2CEQJvcCvGWKeh-Q
p1847
aVS9w52Y8f_nfv8QXuHmXBCg
p1848
aVEg_M8eeu9SDEdbP7iUmVbQ
p1849
aVBV7lzWCXot_NQaQ5YS9z7Q
p1850
ag880
aV9uVFews5pR3nWI7shkhozA
p1851
aVBiZAzf2SAFCE0gJrX-PGFw
p1852
ag885
ag1551
aVhbfrg7fG8xDqUwKEW53t-Q
p1853
ag116
ag891
aV0LtFE_pQ9R0rXUknlnFGrw
p1854
aVvt2NMSbKpVN0r0HI6Az4bw
p1855
ag892
aVmGkbGu3OymZmIVhtjYRWOQ
p1856
ag639
aVBS6hEbAg7y4ELeWFFgCBPQ
p1857
ag895
ag897
ag900
ag901
aV1qYzhKjCHJitrqCzyUdd5Q
p1858
aVm-fA23JiXIVsT3uC-cTfnw
p1859
aVxNJABNiMkI1JZfUkW-WzjQ
p1860
ag902
aV8WGDqkmiwlq50SRIcB_X6w
p1861
aV8k2l-fbaeQU9lVG4oRgxUw
p1862
ag905
aVPQrCluMVsWTGvloynpKBog
p1863
ag1736
aVHe5L40pVWlrB1wrgx7LrAg
p1864
aVGAmd3nHx5TInVN26PLZj7g
p1865
aVBvqXdJ4iadG5BfMWExX5dw
p1866
aV9ujr7iilByV0mM8N0-DAJw
p1867
aVhYIF36Iq282ozuX4spoS3A
p1868
ag1142
aVvg55SAkrEmuHpWfIMtJjBQ
p1869
ag285
aVW0wraOfAWQj46ehDjCTeHw
p1870
aVYk3KzKmdNRxSdhsc2Hsmpg
p1871
aVZKPrXH_GNW_AtZ31tP3NmA
p1872
ag913
ag914
aVq9yRUhtTnlxTJPhTMrMWCg
p1873
aVZbHZQKuuPu6q5agM1awr9g
p1874
ag918
aVFjmEYsEtRNaerkOjh07wSQ
p1875
aV1M5pHJqGLL_-t74M37uQ0Q
p1876
aVkT9SuRVTapbDgFGMcg1Rqg
p1877
aVbcx5R5pI3CLHMoMKD204Sw
p1878
ag296
ag297
aVYtxuEmxhld-QSE-uxN3KZw
p1879
ag922
aVNhRYzLtnHbZivgUGjT8qFw
p1880
ag1739
aVB0C8R0VWh_6HEzpLhKocGA
p1881
ag927
ag310
aVpr9Hcn5fjpxWLZzIbNb8Cw
p1882
ag313
aVRtbh34oMTgqCXfHNRzpykA
p1883
aVv0H3TjFQy4GNPZ4MDF7UFQ
p1884
aVhh92MQDje3zsN1jXi6uRKQ
p1885
ag936
ag937
ag1232
aVE3PC72pmXgBP_GBWq-HvtA
p1886
aVVQhlN0DJTffpUOw6j82oVw
p1887
aVOZtXG5DUsJZrtMFWodCNnA
p1888
aVPH2DT98hRMd4rEfru_R53g
p1889
aVhlA7e9LQ4hPyohmQh4G8RA
p1890
ag120
aVdFxV7FLwjdNRnfmX73ZN3A
p1891
aVE-guHkHFREvvIdkNHPZeFg
p1892
aVLgYajehn0EQffEI1SQIUIw
p1893
aVNAEIYyeXtrxRn4OlSAm_4Q
p1894
aVYrZxRSTg_dVbZd5PXz7G5Q
p1895
ag939
aVsB0RVG8EUi7IC6MwNVIHqw
p1896
ag942
aV_6nCq4wLFggW9p-X253KwA
p1897
ag34
aVKGHrM4aF5gWJMW5S7z-xwQ
p1898
ag946
ag948
aVaJy5lNyUJjAbdsMrJz3YCg
p1899
aVKcj2WNOl7fx_E4PSIFYWFQ
p1900
aVNEa3QfKlbLI-BFh9_DCPzw
p1901
aV3I2UzSJ9I3P24FJOiWVF6Q
p1902
aVdz1qvyImYe6lG-UEU0VkTQ
p1903
ag954
aVPMduIGhezzKOdEsjEX4llg
p1904
ag955
aVjkwTVzypV1URwFUaN71wYw
p1905
aVLU94EXLyCYrQoCFzpnVWWQ
p1906
ag339
aVnjVrdjtYX6EwsuCo1Qbp6A
p1907
aVp7HTokVe2O4WrjF-qW6ioQ
p1908
aVjDVGMPNcjmpzDBMx0ogTPw
p1909
ag1741
aV4Pa8wmfUvVqaFM4tDppJig
p1910
ag959
ag963
aVGkYPYQC_H_gKWsalG7dk8A
p1911
ag967
aV2O8yPZVuQADPW6mlI_sz1g
p1912
aVYdS4YpaCSg-cjqB66eadEQ
p1913
aVLexBKYooX7RCZEqbiFd_aQ
p1914
ag970
ag66
ag971
ag35
ag973
aVDx2F285rC4BghupY8KsUlQ
p1915
ag1743
aVHGxPtG7uKNFtJK7cAvdqjw
p1916
ag36
aVnAHhu6ZdaSN_qEmW2U1k_A
p1917
aVDTwNhYuDQzyGvUHysBk_4Q
p1918
ag979
ag980
aV7ZiKL8jps-9Xiu3LeVPGFQ
p1919
aVmhHTlNKioAfZEFZeWad0zQ
p1920
ag987
aVOUNndH-Pex84qGDICzO__Q
p1921
aVAosVp_67irlM1MzpgURciw
p1922
aVadlxS3GdRV3DIgOd1BGo-A
p1923
aVFD4F0756W0FrMT_6YYgvFQ
p1924
ag990
ag993
aV-fiUXzkxRfbHY9TKWwuptw
p1925
aVJyOh6zIV1sGINuEnzOBckw
p1926
aVPg-Fzym8f5Gh3mGYEUc_uw
p1927
ag1274
aV_gMudADHrACVPC9rnnmuzg
p1928
ag1404
ag997
aV_9ZZv5V-uM5BXx3P-HslIw
p1929
aVdQuDuXxmiO0ZjyZ3i-bcAA
p1930
ag999
ag1001
aVVsfYRn8Zis256vX3MvOcaQ
p1931
aVFv2VLzVj9ATLcTbFehTDjg
p1932
ag1008
aVc5xLmH0GwmdNIvaqUqBLKQ
p1933
aVusSxrJO3XgB5RD9AOb8L3w
p1934
ag1487
aV7oPD0Kg-BEpMzYt-Z9QY2g
p1935
ag1012
ag1013
aVgtYWhnyGjqovJFnKFTD7GA
p1936
aVw3p6mz0m1b-jPm26weDabQ
p1937
aVymKw4Izgcz5F8eEozykNkw
p1938
aVFh3IBQ5K7tEFbzA1AL4r-A
p1939
aV1EMNJAZpx5tKT5DkzCtQgw
p1940
aV4ysAJBUfOcVjnpIRg6I6qw
p1941
aV6hfzW9oYtVdFC7HCpY8Mag
p1942
aVclZwU08PP95oRxc-UrKhFA
p1943
aVO2i_-qskooCn1Z8p1e3NbA
p1944
aVgghrK_T4ulGBgJPtn2cbiA
p1945
ag1017
aV1oUR-uslcw6yX_nzHoBEEA
p1946
aVk9UObyytIt6xmo-vzdpPdg
p1947
aVeyiAZbC59E8ku7uuRHr53g
p1948
aVrLGVYIM4DHSMW1yi4-zhwQ
p1949
aVGJeDUUXbNjFbKR5DyCgF8A
p1950
ag1023
aV9nXLjrzvjMAnj8kCL5PMEw
p1951
ag1786
aVUjmz1mj7mlokaHbIgEwL7g
p1952
aVsY_8iE6vA3mjcrpIKPKwGQ
p1953
ag435
ag1636
aV2WXwWfhpfia7_UflDYnUyQ
p1954
ag441
aV8sGKlCVtewMuA2RGyfatyg
p1955
aVU51HmRCmyf62KTj_rVtdcg
p1956
ag1030
aVKut67vKVdqxe5MKZUda1hQ
p1957
ag442
aVuESbZnmYSn_hP6lAn27m5Q
p1958
aVj02gTTHl7Wcj-XnhAGZU2Q
p1959
aV0D_kaKetEWvYJ804dCARyw
p1960
aV-4P-EXfn-Urvkh6NHK4OTw
p1961
aVXEy1YPTpVg5q0WD2K0Ex6Q
p1962
aVi_zvD_Bn4XjSSAzocEwJkw
p1963
aVFXaCGAjZRYNqaYYcpMKrdQ
p1964
aV_-8xEz7AdXwKp3QnAehGHA
p1965
aVc0yPNU-BqS65u0vIKP7P0w
p1966
ag1042
aV4ERMTfKvWdANjLdyjiCcDA
p1967
ag459
aVrJGFSq4WhVZKpOChogMhFw
p1968
ag1045
aV1iY5q6spBS_DNWyemY829A
p1969
ag1047
aV7BaPMzZNBql764Pw6xre6g
p1970
ag470
aVNJwdO4FjfbazsyiHMS-o1g
p1971
ag471
aV2GwaptvRSJePhLgVsutUdw
p1972
aVpWHQ0Ezf4a1oMO4ooD2iAw
p1973
aVhMxHaZPwR2loM7EbKotiOg
p1974
aVyTjv9RWyou02IQJO7KPenw
p1975
ag1055
aVi5N1IWRgJfwsTXiJYVT9BQ
p1976
aV48ivBERgvsEKaop72SqqAA
p1977
aVQpM89NwqPaMetvnoCnBB7A
p1978
aVytolCF6oDd28c2x6tAaTYg
p1979
aV3p4MTzaGC6k5BAb1IiYgCQ
p1980
ag1504
aVUcbggUjIGBNBK55TMtObLg
p1981
ag1753
aVEqOxdxn_ziCSkj988ERTgw
p1982
aV-4dfm4rBG5xv8sPSSmE5qA
p1983
ag692
aVoWQwUw8xfQgi1nVNKgS6vA
p1984
aVF6Qsav77WqGhstQ1E2xRGQ
p1985
aVfZVvW32FiUCGNckbBjw-qw
p1986
ag1062
aVm27EgnovzOxP1QYX6ZQB8w
p1987
aVTA8Jj9Gsl6gvNrIP8hpvew
p1988
aVZrA2FSoaULQPmDrDIOGcFg
p1989
aVBjOCmgbagZLdUMB4g8x60g
p1990
ag494
ag1069
aVCIkPYeRsbxfiKAw-6od-rg
p1991
aVlncA9vgtds17wx47oyATQA
p1992
aV0GAAtSRsnX3qFBMMszccGw
p1993
aVs0-xvfpUIG0OR-8fBr_QTg
p1994
aVFozo0B-y42EhRMomR0K5vQ
p1995
ag1078
aVCfonr0hg-2hz1yUkoDwx-w
p1996
aVja-xH_xUKBFawH7ZQEeCsw
p1997
aV9W-k-SJpyEZF1hmiK8MA5Q
p1998
aVMxn822gLYwJp128pbwu3hg
p1999
ag1081
ag1083
aVi4OGo_3rSmgW8ze9AiHB1Q
p2000
aVXT2K7Q5F8tJ21NnNvzt7cA
p2001
aVNkGTHDiF_boBdFFaasNndg
p2002
aVAeWKgDveIWXCDP5O9HzO3Q
p2003
ag1087
ag523
aVSzPvCEYOOLdpcmwKRdDbeA
p2004
ag1089
ag1561
aVXuByFsXXhnKmZ6hxucOj7A
p2005
aVCqU7SXYRo9EbMwlxrSvErA
p2006
aVsHykt7KYv3W-66t-IFp31g
p2007
ag1095
aVkTiB7a40aXsxLW5BipKLYQ
p2008
ag1096
aVB6FD5WsMfbpMNbh6ez_7sQ
p2009
aVTwwaezIakfJLmMvw9ChM_A
p2010
aVN7luSQX9HJIYJzIdqzIEng
p2011
aV0i2wGD6sVeQ3NtDKet2ETw
p2012
aVbiNk2izKRsujpMUT-0WKLg
p2013
aVOlknnWVWwtdSYkHSWCXmqg
p2014
aVhmhaC0cPIpIZMFkOzWkOsQ
p2015
aVuJA6Perynk-drhKfX5Fh4w
p2016
aV-79JF6MafhGg1B_KRDl8vA
p2017
ag1105
aVx1RMxTftVIjS8HvWf8tpoA
p2018
aV6ewV-e7-39oqYUq3yZuIyw
p2019
aVO-ZPOGlws9LznmNrSeniyg
p2020
aVJbyQQPjPbp6mSNXmQH77pA
p2021
aVp1257iwsyKj00D_145O03w
p2022
ag716
aVTpLbrBsHSej6Snb6LXDYxg
p2023
ag1117
aVoYMXnGiX9pFVe52isEVdgg
p2024
aVKTYNXnLKrd-0sBvaVwUYSw
p2025
ag560
ag561
aVoEMAEVQZwBmnMxNdwNFsgg
p2026
aVZPgOMNv9Jip-8yfbyKp1Pw
p2027
ag564
ag568
ag1126
ag138
aVvuBKmVXxOTPQDcnC4-Qq6w
p2028
ag699
aVKU2ox4dYBKqFXmhY8cE89A
p2029
aVWziqGmt6LHfwfbh_R3aJug
p2030
ag1129
aV_UyjMqhiaP1n9WC5Xt3Ngw
p2031
ag1527
aVVQZF4hu7faCkUaJ9RDRpeQ
p2032
aVZ8D27rWGnkDU4grptvNWUQ
p2033
ag585
ag1370
aV1Ip9LD92OaNFbzbyTj22Ow
p2034
ag1529
ag1135
ag1530
aVb__KU64qb0A7edVyf0mPQg
p2035
ag1138
aVTe72-fjbquQFCfPBgJ4ldQ
p2036
asVCaterers
p2037
(lp2038
g1428
ag161
ag1576
ag1724
ag1725
ag1726
ag1578
ag1727
ag1728
ag621
ag1729
ag1730
ag1586
ag1731
ag1587
ag1588
ag265
ag1600
ag1601
ag1736
ag673
ag285
ag1738
ag1739
ag1740
ag336
ag1251
ag1741
ag1743
ag1744
ag1746
ag1747
ag1635
ag1748
ag1749
ag1750
ag1304
ag1752
ag477
ag1753
ag487
ag1754
ag1755
ag528
ag1650
ag536
ag539
ag1345
ag1563
ag1715
ag1757
ag567
ag574
ag1371
ag1758
asVBreakfast & Brunch
p2039
(lp2040
Vn9KSfii0GCOJOhDJLAXJ7Q
p2041
ag1801
aVxwyJUcRY0hNlLY0PDqZhlA
p2042
ag1570
aVJT23bhY1mFme-EJdHjeMow
p2043
aVfFsEJQB2HhpfXV48ioxzXw
p2044
aVrKMPry_7sf-OlRkI8T8NRw
p2045
aVPIaV4xeLf2jg-vfPYrGR3w
p2046
aVBonZ748EKm8pwtVQalFpYQ
p2047
aVIc2xakPYKgM_Uma5hnLnFg
p2048
aVxFRBN0lFt8g8XjeYw8kFtQ
p2049
aVQUNchfxuTOOmjAXkHivYdQ
p2050
aV8ht957FWOJ4ryhseu8kzDQ
p2051
ag1820
aVRZsq6IL8kinUvuIK-kdaoA
p2052
ag1824
aVqMZj6xcCvyqPef_xqxBEsw
p2053
aVBUq0q_5DiNXYZ29kCsgyXg
p2054
aVs6Jrle0S4ZWvcI4DAGeUdw
p2055
aVymDHWlqyOi0FgrSLo1jpkg
p2056
ag195
ag1830
aVLhHClmzuywciGSbN4eiigw
p2057
aVkPTd3dJ3alFcHYyeOdkWmg
p2058
aVWq84zy8_rw1IkAqPcPqJ9g
p2059
ag849
ag851
aVResTVefi8Km1RpTuWkqFvw
p2060
aVVlzeNUSkepYtIgYCkrqRbg
p2061
ag1549
aVEy6t9YAXkaIp8Qi-nWEnDg
p2062
ag215
aVBlUEgCOGzDwpOWnkQn3odw
p2063
aV5ZLz8TTa1AHQJ7ZBEMUBAw
p2064
aVCrdFtMqMa1pTS1GZ5lAwZQ
p2065
aVFO2c7nLMs4xvgNUvq81Ljg
p2066
aV-1Jfl_zix9l1RRWOPmzSEQ
p2067
ag1190
aV0B28Fy2vkAF5sLnUyaAqaA
p2068
aVYO8sWa0wYChH6DQWnE6NFg
p2069
aVQ1kfUsjuyFr8vgdTf9v6Yw
p2070
aVRx3m7vtf-eWBSQ4AavQl8g
p2071
aV33nfauIJqAZb-Cy01BWwrw
p2072
aVgALFkrzRObVuXO6Pyjzqhw
p2073
aV5u43Oyn9sqgIq9ptPOGaSg
p2074
ag604
aVbdNTZyrd0-GT5vZ6uOhXsA
p2075
ag1201
aVhViJhiow-CJVryMoEKxGhQ
p2076
ag605
aVc-sH2K3OowoQgYTLAoopRA
p2077
aVnbYDvcIjQf5bioEefypkYQ
p2078
aVCRrj-Tpbj54NcruRVKYW7g
p2079
aVR30PxELpBV31Ugy7n-MZaw
p2080
aVQabI5fOzoyFPd5LtWPlVBg
p2081
aVchV9_4XQ_wLuL3vOOZqA2A
p2082
aVA6dVeZf0ZKgOqKxB7y0F0w
p2083
aVsH4qnGpyWWUPim9WHYfmCw
p2084
aVpn96zHTDVP_F68de76Ox5g
p2085
aVWGSy8QlY1vn5lpCNJTOLxA
p2086
aVSEOwd0srJ9w-66Kaj6a0hA
p2087
ag307
ag1883
aVlWmDrnqgU6w3gFaJyn_1Uw
p2088
ag1887
ag1234
aVusUxs24AHdtv3hYz7iH-SQ
p2089
ag1897
aVEOoj2h1Brzk1AhqScvIHDA
p2090
aVPSBDb3fb9WIeLU4JMs63AA
p2091
ag335
aVhy5mLCxslruz46Y16yd7Pg
p2092
ag1906
aVarAOlVph7XutNDtRV7jtTA
p2093
ag345
aV0tX2BR7qE-IP5Ne6vLwy3A
p2094
aVsxHugC9jE_yfkn460JMV_w
p2095
aVBmgVjZ_m5YWpHtSRfPdhcw
p2096
ag362
aVr-3DpUzdVY0Lo4hA6Ifyuw
p2097
ag966
ag1914
ag66
aVtizLJkM-eyOgSm-x26VGvw
p2098
aVmEKNao-OQXU2BVzZfV7XUw
p2099
ag976
ag1744
aVoLwgMzsrvNsq-td3QrN3FQ
p2100
aV3Sigu0eiNjcHqskv5dJwtg
p2101
ag1919
aVMV2sYTXcBz7bH4a960ac7w
p2102
ag632
aVaIScXq8tMcjR8Rkmi8qmdw
p2103
ag381
aV4EAHGaY2wbkQma_yTBhLiQ
p2104
aVEPiqqiFabXeKWNvgGj2mKg
p2105
ag399
aVFXSmA6oWEvylen1QnVZlAA
p2106
aVsx_tne-DYkLyW5wir_c4Ag
p2107
ag633
aVOY1G_vhUYJJ3HdHfOZ2wrQ
p2108
aVo9o8gDzVlAh3x2BLPaOStw
p2109
ag1747
ag414
aV2XWGSoiWA1Lj4k9658i--Q
p2110
ag1937
aV_GTu9MAHtHMkpIUbGSMsdg
p2111
ag1939
aVXC8SB9Af5UWKtwl4IG7Fhw
p2112
aV8PJFVprfmPTOMKD0vfkEnQ
p2113
ag423
aVQK92fducCS79yYkuTEfG0w
p2114
aV7zgdhdt4-4ZsxLXvX3-abA
p2115
ag1020
aV59z1PjiYi5yWrMmn2fKavA
p2116
ag1634
aVHYHdE4sJ4BYa0xlmO0PZ6A
p2117
ag444
aV0F5tMfL72CNTivKuZIRgjA
p2118
ag753
aVGRaA3YKV2bcQzPRE2h9gpA
p2119
aVofjJxXNJEm1ORffWiORhZQ
p2120
aVKBSD-XNDRjWi7JCDK9IpMg
p2121
aVQkFMzggZpfflcieMFWXdeg
p2122
aVvJFplxoIJO2MLpodACW7Vw
p2123
aVPC-x4Om-XXGqFn0ludTykw
p2124
aV3KWG_M4klyfgyk6bZsgUrg
p2125
ag1052
ag1977
ag487
aVTrJWZNa37kbv20lbvOm-rg
p2126
ag1506
ag490
ag1061
aVb_xFN9mtFWHUbny-GoiErQ
p2127
aVlLjt_HR2QDKBoXsOYDa52g
p2128
aVfw-4NM4veq19Hz9GZXwkcw
p2129
ag1559
ag509
ag613
ag1995
aVekkrn8-splkvfLSeQBC2cw
p2130
ag1997
aVIsqGaD5u47Qx1Ms-VKJ-bQ
p2131
aVOHf3Kue07i_nR7oKQRWocw
p2132
ag514
aVgOtY-I9lvbyOUShbBhCChQ
p2133
ag521
aVq4a9_hphM1zrmYZDi6lAcg
p2134
aVZCmOqqL9Z37MA52rEio8zw
p2135
aVeq98ctJwdLggefOvlcnSfA
p2136
ag1652
aV3SWlO4eQQk9-SlEigS7MuQ
p2137
aVEwFD8bVXMbWjrJygRPfkfg
p2138
aVt38KiHAZCGCLo9QsLllpnQ
p2139
ag2014
aV1K4zYEVDxUtacLGdZU2nWw
p2140
aVBOCJ5g4q1RhP8wikwwr3Ow
p2141
ag2019
aVdEKnEqm6Q44copoadiT8Iw
p2142
aV3UlHZkdgedfdJ-XvXPmo_Q
p2143
ag1356
ag1112
ag1117
ag566
ag567
aVGHe641VggznYYFnD9RM8pQ
p2144
aVYdsPB-Wl4CEo56qaFTTlGQ
p2145
ag581
aVG5JO2IlthrZ_SIxHTwGSvw
p2146
ag1720
asVFood Stands
p2147
(lp2148
V8SqxzaPVVBTIxrbJKZwDxg
p2149
aVUVPVAtsAiBOtw-BI_W9kTw
p2150
aV9bbwPNPYXqP83reSK-hASg
p2151
aVRYr5LkmPx9N1ZkiYkDe3Tw
p2152
ag156
aVBvOa6j_YiBbtc3h7Fo5ScQ
p2153
aV4i7z1ttEkRTFlhYLtUhJiw
p2154
aVOXDXjl9bpjgxrtNtYmi7uw
p2155
aVB-DiQpcSTJ7oMMnwzbAGTQ
p2156
ag10
aVlwQFTLQJIughwwZy6VF1dw
p2157
aVTS1eYydoWdk9HwOUXhAgXg
p2158
aVidZyuQIe-ZkecpHN8fTb1Q
p2159
aV8LUM4M_OzTDg_XWn5fiR8A
p2160
ag115
aVPwTk4xS2NYJEPO8r5t4N4w
p2161
ag11
aV_iVfJSoo0H2lySFkRIfHHw
p2162
aVxH4EuOcHpOJdbHUoJNfyGg
p2163
aV--q0WbTS_Gl55W3bC4zmSA
p2164
ag12
aVV6rJE3z454k4pZfLoNxmaw
p2165
ag15
aVPEnmb3OXiEUicxVweovjgQ
p2166
aV-iS9xMoEMMklMEGsRwKfJw
p2167
aVrnwJCd5UoifVCjBM9hYd6A
p2168
aVOzLB_Yc2udRnw2z5mTTP8A
p2169
ag2080
ag16
aVlNuz_986u8dilF2x5Yc-AA
p2170
ag1450
aVyw2yc4OlDDf-5g9DcUtpuw
p2171
aVbAljDfssbdUVngTT_qrO_g
p2172
ag274
aVL3uemg97EJZ1SfjEE60Qvw
p2173
aVD78Bs3bESvOJzpdnL84tLQ
p2174
ag17
aV8fN1DiPUUWAhLsZW4xSSJQ
p2175
aVGiSHio-nOL7eULwMxtoATw
p2176
aVoWbJCpFw8-8JlAUhT67amw
p2177
aV2ih_H-GwfPd2qVtGQuOztQ
p2178
aVzaXaHSbZU6--c4F2z4uazw
p2179
aVt4BlGeAdQ-aOAUSRJUDJ3g
p2180
aVfsqlE7jhO64Q62VDI_uRFQ
p2181
aVwF0FCuuLUAF_dcq-CEYLvw
p2182
aVyvxE2zQ3xwoREosD_n7v_w
p2183
ag1901
aVn9laTguU-iYpQZhgCmra8g
p2184
aVCmumtnKWl2ksWGWtE33Rww
p2185
aV1yr9wTWlJUEMvzWwwV9aQA
p2186
aV_QzlIe0DdxSHBJtbPvNG2A
p2187
ag344
ag19
ag20
aVg-lSVCxhbqOypjkOgcsN1A
p2188
aVPfbyinPLMGAfSrYGia5Jvg
p2189
aVdt0WE6P8b1AHJdb9V8C9VA
p2190
aVF48wjJ_jjEz59Prh20XhRA
p2191
aVPAbaX8yrKMuB8x9QpjG_8g
p2192
aVlIPv3-ocdPvkiiE6JaQi9w
p2193
aVogJa3ucW9GVIOzMTqnK23g
p2194
aVkhvWGKid1cahwwYuYa35Ng
p2195
aV0wreSpWN2YuG4pLVDespcg
p2196
ag632
ag398
aVsC45E7YvilOD4mAngrr3dw
p2197
ag22
aVKCxdy3cm7H0jXnDhhPvBYw
p2198
aVLxIUCkxSa7YnUCipS43Dbg
p2199
aVur84JezPd2IN5PN4J-fEVw
p2200
aVCJNj7-nfZZX7V1UnHm3atQ
p2201
aVp7SZnq-msIbO5oElxyuIxg
p2202
ag1555
aVimd0v6mixJCBnqGr6RV3hQ
p2203
ag24
aVkxAQGy2ZpguB7zn8Nqgb_g
p2204
aVv6rCXXeFdHX32Glbrs7o5g
p2205
ag447
ag25
ag77
aVAr_vhB7U4lhX1PF84rmZYA
p2206
aVGDATF7Wkz9XhaucMdRxUpg
p2207
aVPE2Ny-4ajVpNnKH-hV5BPQ
p2208
ag1558
aVfK0Z3tHJZ9zB0JeWlQT3xQ
p2209
ag473
ag712
ag612
aVt4F4M9V0l0SMCorcLQ686A
p2210
aVADHAwtNn6xKZoHgh05HsMA
p2211
aVrFscSQwEcsYmQexb1Jqjcw
p2212
ag498
aVtmKLRQ9dylAWjmTGRtfdIA
p2213
aViZBdSS0-yZtYlJKhVZLYMg
p2214
aVbLIG8XoPwoZEFuOwq-gyhw
p2215
aV_xREqE5m3o3zGjy4xVZnlQ
p2216
ag1541
aVVZbkSeZtFynEascotq7ExA
p2217
ag27
ag714
ag1563
ag546
aVTQz3lMtOlZeo4rvjLm2t_Q
p2218
aVsKdp6dcLfyXWVWWU6OJPsw
p2219
ag1757
ag568
ag30
aVPrvGlIM0L99VY-AgkFJRMw
p2220
aVNtyjXKWUH_Lc0XEbxhp_1g
p2221
asVShopping Centers
p2222
(lp2223
g133
aVfWZV4YEESe0XDcdyB53OHA
p2224
asVGay Bars
p2225
(lp2226
g933
ag1020
asVInternational
p2227
(lp2228
g874
asVDo-It-Yourself Food
p2229
(lp2230
VyuO-Qy1QQVumIhO0ijvl3w
p2231
asVGuest Houses
p2232
(lp2233
g856
asVGas & Service Stations
p2234
(lp2235
VK7j0BqmmN6ZEZ4BHIgUcng
p2236
asVIndonesian
p2237
(lp2238
VkNKEjrUjM5BEEaQizH5Svw
p2239
aVI3Lp5BoPy-BJ1MYTKoJF1Q
p2240
asVShopping
p2241
(lp2242
g180
ag645
ag762
ag121
ag128
ag486
ag133
ag2224
ag756
aVM4QOoCy_8Rr1J7QHdnMLXg
p2243
asVFlorists
p2244
(lp2245
g756
asVHawaiian
p2246
(lp2247
VcvDsVQAPUd3-9MgzskbN8g
p2248
ag2155
aVqRUGvX8ZM4lyG448w0vbtw
p2249
aVIUDDk1d-za6mXm7S7ADTAQ
p2250
aVBKlN_RDN6vzQQ_bg4n4R6Q
p2251
aVEKHCrB8CQbexyZH-Oazjww
p2252
asVCoffee & Tea
p2253
(lp2254
V3WFnzu8D6S_T7guXZIOp7A
p2255
ag793
ag2044
ag153
aVTCjOnOepk9KNXlPMHI9BLA
p2256
ag157
ag814
ag166
ag169
ag1815
ag171
ag175
ag178
ag180
aV8leHSCn0DCa1ilxfbHuCQA
p2257
aVlTPcQJeZ7QF1Q7k2v7_j1w
p2258
ag2054
ag184
ag2055
ag188
ag189
aVZnl2P0iZNNHXxvf5jQRKAg
p2259
ag193
aV22o_VdMfKA1jjemWwbeujg
p2260
aVZdyMzW01ZDsTO5krWB9Ywg
p2261
ag204
ag1583
aVenGJVCcx318pimADsMzoWg
p2262
ag1548
aVNGyFcZHghu1uJ0G-pXJxoQ
p2263
ag2062
aV1Arp9hcvzepOtG2vOGmXbQ
p2264
ag215
ag1835
ag220
aVAZqsal3nzTkwQqxUol_UjA
p2265
aVdDlFIDndjE1mRUIncFTDIQ
p2266
ag232
ag2071
ag2072
ag236
aV6QZR4ToHKlse0yhqpU5ijg
p2267
aV6ld4l3ODZUY9U78lH_4xhw
p2268
aVPmb8DDl9ATf0Q8pIev13ZQ
p2269
ag242
aVIiX7lGoQQE3T4wg_1cx8Og
p2270
aVNErQU1mUd_ulx7I8U6Mlig
p2271
aVYPgEcihzLlVBtnHbIBmgOw
p2272
ag889
ag671
ag261
ag262
aVIL96KSxK3ov1m-1WQV8MLQ
p2273
ag2170
aVxrknhNNYNNSLfsHk5iX69g
p2274
ag706
ag1599
ag275
ag277
ag278
aVGD0XvS6HlCuDjtCDWiLkVQ
p2275
ag1606
ag607
ag676
aVVKH8b3YJ1P0sjbxqKdYBRA
p2276
aV9b0ly3b2nF-pYCLEFuIJRA
p2277
aVXBPMMfMchDlxZG-qSsSdtw
p2278
ag306
ag707
aVE4d4Qc5ds7GHcfoMeoBWvQ
p2279
aVby-1gi7evrPKSUmeaN1sXw
p2280
ag1896
aV4MPACVneQtpnTbzHavn1fQ
p2281
aVWYnXpXym2DMtwchDcbilmg
p2282
ag948
aVXyeRCD7AAkwzPL8stT_Law
p2283
ag1468
ag1553
aVAbEUFAGtAISqJms0_sS3Wg
p2284
ag335
ag1618
ag349
aV1KWaczlXfDi9Z3urqlh_Yw
p2285
ag351
ag353
ag356
ag2094
ag641
ag122
ag1916
ag372
ag2195
aVgDZy8P0mkWOIvcos7oAWBA
p2286
ag377
ag1554
aVPFppNi9rZWAw5f8e5J41MQ
p2287
ag1923
ag388
ag395
ag396
ag2107
ag748
ag407
ag633
ag1629
ag419
ag420
ag2112
ag2114
ag1951
ag435
ag444
ag2205
ag753
aV99U2jDWgwdmifIk5JVB0pg
p2288
aVhTp23z3Q5PCvuGvKTIQtXw
p2289
ag1640
ag1965
ag453
ag466
aVbvrquYHSLWwlemJQJMaE7Q
p2290
ag1642
ag468
ag472
ag475
aVGPhnm_rcjkbc_b96DVS5HQ
p2291
aVXPRLOKOWaisJo5aS_AV3Zw
p2292
aVAXQhTGR3PLFk1TW72CbqvA
p2293
ag490
ag132
aVJDcwjWk3sO28D-LY-4Zwwg
p2294
ag492
ag499
ag2213
ag509
ag515
ag1540
ag521
ag2004
aVWNxNyYPdVVy9e8RvIo2Zqg
p2295
ag532
ag538
ag2137
aVj9tMEV719PzFcc_wp8mzlw
p2296
ag542
aVGCgu0btCydmDs2XuU0dAmg
p2297
ag1356
aVDTCjTHOKLWG1laMx5T3KhA
p2298
aVPhqwjk7x11WMAd-rVGbY0A
p2299
ag555
ag563
aVTJaImyntBu0ebKugcyj6eQ
p2300
ag617
ag577
ag2145
ag581
ag2146
aVyr5PAGXB19P1cy9-QJ9IYA
p2301
ag1131
asVAutomotive
p2302
(lp2303
g2236
asVCheesesteaks
p2304
(lp2305
g141
ag203
ag318
ag2092
aVgB4vpRo21JewareYUFMQcA
p2306
ag476
ag510
asVTapas Bars
p2307
(lp2308
Vro6MRdYutymeXfFXO3VIrA
p2309
aVynhSJscAI1aumkgEBUsO4A
p2310
ag719
ag901
aVBdpaiSFcwCJKQHV7nhez7g
p2311
ag950
aVpZnk9tKEHrEIHq0NfSzXRA
p2312
aV6KpdQo3HjKIucs-t4TtrmA
p2313
aVFla_8ZJSGo6RlXLYw8YB9A
p2314
ag983
ag991
aVzQTD5y0DHT2aEQ2ODGUrSw
p2315
aVxnly14PYAuvvlZF2xPY31g
p2316
aV1TcoBytv8kKzTeThj87lKg
p2317
aVf71vEEkEQmCSiN5yMZovxQ
p2318
ag1046
ag1050
aVNcNzTKVatkbRkD_G8A891A
p2319
aViStzlZvi1vwCPU1BOtr6-w
p2320
ag2015
aVEz1U0wMD7Wws2BPAYfW3yQ
p2321
aVSmHuGnqBCjGg5e8QAkBTtA
p2322
asVComedy Clubs
p2323
(lp2324
g830
ag120
ag1028
asVSzechuan
p2325
(lp2326
VMMRRS6YhVRx_iN5-JhMRYg
p2327
asVSushi Bars
p2328
(lp2329
V60f6JzTRhOyOggsjCfvh5Q
p2330
aVnL50Y3Cw1TxdqYWJUe-I7A
p2331
aVAKfHinPZ5vdPdHRzpvSWtw
p2332
aVaZzq3M2xwbNHNSQe2AbAOA
p2333
aVJlN5BhjbErkp6myx-8Adkw
p2334
aVHWhf9Q-rj6YR1tRRBOjuhw
p2335
ag810
aVhSDRGgXGuX2BtgaIi7qm2w
p2336
aVXrhhmvu6JX148OkK9a8xug
p2337
ag775
aV8ur--e2ts1vNTnKiQdSjfQ
p2338
aVz7543gTRoewwvk72MwqvGg
p2339
aVLpjwkQXcCxozUG7boL8g6A
p2340
ag1726
aVfpuEIci83z35sIHEOzT78A
p2341
aVcnAlFDuH07VBnNDqxEXHkA
p2342
aVQ-uM6XTxwdTMWS-RgrVijQ
p2343
aVZSxfavParuurd3pxudNO5Q
p2344
aVNgwqZNamI-NyBMfiIadWCA
p2345
aVCicSpPgT48Gd9WbsViS2DA
p2346
aVbttqbY6M0TDc9tmTVDUFpQ
p2347
aVposrPBw7wurh4-x_iAOJhA
p2348
aVLqr5YF6N6nSRb7WChYNOgg
p2349
aVYKWQbP6B13LT60j9tEEtIg
p2350
aVFa5zzw6gLB2_C6XPBdsqew
p2351
aVbZ1Q106Bmt6tR3Y3yiAADg
p2352
aVMUDNlHoJMAlXwSu85TcDIg
p2353
aVSSmHkP0tZ4TKn_YUOEkVUg
p2354
aVLWcLy4fXNECVLEfeGJGh6w
p2355
aVltzLa_vOM7ZoOH2cUa_pnA
p2356
aVvo2EMb8CkdTDL4gTQ3YaQQ
p2357
aV3D7cU-oTIyeI18UPuT1LQQ
p2358
aVqsOivJlvdey0JCJ72VwcFw
p2359
aVaioRZrKcrInXSuKgr0RhjA
p2360
aVbRtTiZw_5fTK0m3RT0ja4A
p2361
aVSijUAKpEjanhVghyhr46XQ
p2362
aVg5S6Q9W0IwN5AEK3fNWzbw
p2363
aV-ltVJF8t_6qT6n4q2Hm_xw
p2364
aVoAitebJFkMjRvfEkXb0j3g
p2365
aVzvNy1dxY0Bo2MoULEx29rw
p2366
aVgaFdudyUxO3Y9wkpwLRueg
p2367
aVj20CNUG7VsV7_Ezj4bUsSg
p2368
aVG7iw9QSWBMyB05yvq-xs4Q
p2369
ag57
aVjqoPY0jZ83x1cBokYznJSQ
p2370
aVl-RO4heQFcQQ1lpy1dat2w
p2371
aVe_8TvfKT6QT81snfrqYYTw
p2372
aV0-WocGTpO3Zm4q1Zzz49Rw
p2373
aVG_GPyXy1k9yA3njUJpW55g
p2374
aVb2NFzGVrWnYUyd4uEU2kYQ
p2375
aVrD8u403k3Z1XEoIPm2J3pA
p2376
aVooSc1BXZhZgc5iw7EKt6cg
p2377
aVXRMlDR9xjIHE6RVzP3HctQ
p2378
ag1394
ag930
aV1k5e_3cnblV-UAtRCYGXaw
p2379
aVbM6O3pWBCIjsxrcnzTbLWw
p2380
aVt0XN3yBx7uCfcG5tRDoDrQ
p2381
aVOzFROhgxsBgg5JhcfiHpAA
p2382
aVeC0iLr5RxpZPmJ6NGSqijA
p2383
aVJ5ZT1M1eimsa2cwS-jMx8A
p2384
aVC31ExBTn_6UxbTVkWPtNkg
p2385
aV7CRceLJfqisO-NfhmKQsFQ
p2386
aVdchpdGlWTlC2w_zEOV0KYg
p2387
aVCgUgaSo5GyM3bKCeY7edYg
p2388
aVo3QrVPez9nt1Fod2pQ3XXw
p2389
aVRiZqeuLN-3y04yh4c20Y0A
p2390
ag648
aVll5Pp-bNYeWslixHXW5msg
p2391
aVfC7LjIYyl_k6-H7_AEhQVw
p2392
aV9VlV09HupfzZcRP3lTRi8Q
p2393
aVFUCCnOul0I8vE_UrCxRxZw
p2394
aV8LEFMNR4_qVRSTsngTW-VQ
p2395
aV_rlU6AQD8jJJb7iCiHrRdg
p2396
aVe-ZkvfbMZi628OKVcoFOAw
p2397
aVDDPs5cgq4y-nudr0a5g79g
p2398
aVoKghaWSeK1V-mymgUTxWVQ
p2399
aVLw7lLPi2Da-daCK2rxtPIw
p2400
aVjzmByiypWzevH0GkWv73YQ
p2401
aVcv1AfDz53DzWftlHh-58pg
p2402
aV9aEtX7MDFjEtm5ySOViRUw
p2403
aVhzekNMhUDUlVGLH1fauB9A
p2404
aVhTZGMEKTtaY0wwB-czFxxA
p2405
aVPEv6gtuj01IMkVS_1hiCuw
p2406
aVH_XBx4erPI4IrUo8WySPLg
p2407
ag1403
aVRDa29pAaWeZjA9MvAry7Gw
p2408
aVl5U3gn9lknos7YSXa8FybQ
p2409
aV0nkw7pLj753EobaGt-HvAw
p2410
aVDw88AIwVNK7hVUB6wQ45FA
p2411
aVS0pH68OLciEhR9MZ2Hm_Xw
p2412
aVzf10JmXNZFljGl3IgWW-Lg
p2413
aVX4CRPHvv-33kjxVJISZpUg
p2414
aV10NSeX03xC2th8-HGFq3sw
p2415
aVKKB3Z3bLDTNY2hBFzuRNEg
p2416
aV_n5wggIEfBzCUepjgvHXAQ
p2417
aV37Va6ESAdLWYUtcZ5-DaAA
p2418
aVPyusxzmaI9qDN9QB3_9EZg
p2419
aVKU3o2bfHa-igvS7DgnpzDw
p2420
aVYA2zC4F32g-BwRfQ0KUeaA
p2421
aV1-QS7y6KMCoSNnPuzgJqEw
p2422
aVEmZ9_DdX3ClgM9hNqbqo_w
p2423
aVBKEvksG_cPuEdxleHW5eaQ
p2424
aVGyGTEdHA8ajDhU7oyLSCgQ
p2425
aVSASKKO2nRWJ5UOH2ZiF91g
p2426
aVfU3u3qbo2aA5iH8Fb2ad0Q
p2427
aV4gbSrvBdygBRJCUhwPtotQ
p2428
aVhs1VzgstqPJDpBeIXwMxlQ
p2429
aVj7M6QkYWprXA36Mt8ZWfXA
p2430
aV2zHPIfZF3-oiPpfaFLwo_Q
p2431
aVbzP1utyRGu6ywPric5UmGg
p2432
aVEEZw5sqS1bx2RDCh3_DOvQ
p2433
aV7rS9sNX6IjS8goomtUrZ_A
p2434
aVJnLNfQtW9GLGRF1pzAd55w
p2435
ag1050
aVsxIPX4ZAipVl3ZCkkqXqZw
p2436
aVLVMckuI53oVqfAYoqUdxTQ
p2437
aVv77A8jl3eXfO3UgMC-ydig
p2438
ag2292
aVo7BQ5ZQDWbplY1nKKl_FEg
p2439
ag1056
aVrXGioez8wVRBwJXJoBj9LQ
p2440
aVoqZTiKk6OMOHxyWhiQiFtg
p2441
aVft7ZhEJjNrUGMCnsHy-kWQ
p2442
aVkkD0tv_e5E6a8kRpLYEcaA
p2443
aVtJcWKJXRM8lYHihSbSbJBw
p2444
aVc3ChuTyj5E--TetXXT5aYQ
p2445
aVMPAPVFk66pplvv7rkcVfiQ
p2446
aVfTmcFgYB77wZdQrv-nP0Pg
p2447
aV8Doa_RDbhmK9a1xFnputwQ
p2448
aVG7zdZt33PU_Gfmt3qHD88w
p2449
aV9a6LTbduER2sGBUi9MOMQg
p2450
aVuj1MqRo8VsH-GlV94sSeRw
p2451
aVtpaVWvFqb08iv4_RgzDkjQ
p2452
aVsT76TjIALrtPtUb07_k1AA
p2453
aVHfgQtDMNEK2QATbjE3R21g
p2454
aVNEVA0IYbawceL6kz5v5DAw
p2455
aVQiiuqzcD4HUqYpKhhGXU6Q
p2456
aVjlXA9QiCuUXdOZbTmm7iHw
p2457
aVbaeBGUjh035MU3UkHvp8Vg
p2458
aVMzrc1SWgi89AbwsLKytREg
p2459
ag1530
asVLounges
p2460
(lp2461
g787
ag789
ag794
ag799
ag809
ag813
ag111
ag822
ag826
ag834
ag835
ag838
ag849
ag851
ag858
ag860
ag873
ag116
ag891
ag910
ag920
ag928
ag930
ag931
ag935
ag936
ag944
ag948
ag954
ag956
ag959
ag970
ag974
ag976
ag37
ag989
ag991
ag994
ag995
ag997
ag1013
ag1017
ag1022
ag127
ag1030
ag1033
ag1045
ag1046
ag1047
ag1050
ag1055
ag1056
ag1062
ag1075
ag1078
ag1083
ag1104
ag1108
ag1109
ag1111
ag1118
ag1139
asVThai
p2462
(lp2463
Vcgoq8ACyJrSG1OBWcsKEUA
p2464
aVBJKIoQa5N2T_oDlLVf467Q
p2465
aVP_7A5Ztw4Pwizpdqfx-G-Q
p2466
aV58oVEzvF6EnOmvVkXYFkTg
p2467
aVIcLm9Z1zphLnzUvrFK6aiA
p2468
aVjsUTsVpjI5QPtPfaciENHg
p2469
aVgOp_w9qmLq6B8YRypTPp8g
p2470
aV9YeSEzr8HZMCuQlAyr8FPw
p2471
aV1c4j2NhUZsfA0gt6B6_cBA
p2472
aVum1fwTnKZNyB-dMz0neGIA
p2473
aVF_ofTZiczPkYZ93JAE3RRQ
p2474
aVHnz1_h_D1eHSRtQqHSCZkw
p2475
aVgNLgH9yqB2iSjacFpa69jA
p2476
aVVmWymzt1wSYtjpm6oDXFjA
p2477
ag2156
aVoSMpVfjLeSDV2yZzNH0rKw
p2478
aVXtJj67rKT16a4tQw7bxtyw
p2479
aVIKA_AwzCl40t2dW4eCJCPw
p2480
aVuwi8IfY3AQO1iJ1I0B336g
p2481
aVsM_wXrX7Jo6ER8CuhQ9ksg
p2482
aV1w-fe4X85ERlnsdrHspDJw
p2483
aVYmupeGDFKFLPfPUAe6aarQ
p2484
aVNPfFfZtAaYobgRa55B8Aww
p2485
aVXXr7s62ZXeMT10GuxsVeyA
p2486
aVi6ZsiM27S0iE-QX8-B6n4w
p2487
aVnDMnZFjvDqon5qKGMaHfVA
p2488
aVcgJxqaZxWYPB4IhRzA-TxQ
p2489
aVGIdGWuPIuYwJFpxd5etWbw
p2490
aVm7va7-30tTYEccRq6uxc_Q
p2491
aV90Mav75Qyqv2qRYKCxrTEg
p2492
aVgIA1JWri0CQlN3QO4jtzaA
p2493
aVRofPcfgxItpYw1eQ3e1Hjw
p2494
aVAeFCye5vFfyJzlKngrzrNA
p2495
aV4RgT_IRCzfsHDYb_Xm1SwQ
p2496
aVm1zppUNGsGFz6BfWzBF_2Q
p2497
aVTuPliHI_pmNQa9ve2iXfFA
p2498
aVit9mZRfzo9DsFmddSESLbw
p2499
aV93sW9Y_3rJQn305_n8epng
p2500
aV749lGtWM9PsrWonlVY4W2w
p2501
aVh11Hr07ffM-dn-rico0_fA
p2502
aVG9o02NZi6ogOjCfJsnXWEw
p2503
aVKzgI3kFHxYdf-l3e0U-mdw
p2504
aV3ukajhh9kfXcLqMGzh_MkA
p2505
aVUbwb1bPFDMCfILgL2e1Mfw
p2506
aVq9Pvi8sO3FKQ_QpbRA_TiQ
p2507
aVtR7wIIvJsLqI8keoLf8tpg
p2508
aV1zIz2bfmX84YAYY6UTI0_w
p2509
aVQdganL5AW9E_fNoRVroLig
p2510
aV0eF5c27WkOV2MGLMuAwCWw
p2511
aVgPPIvynVCnKsvADSgszAqg
p2512
ag2379
aVefhzFCc7dVySVjk-3RnvYA
p2513
aV1dGQF0sqCghhOntdkcyycw
p2514
aVlx7wE8QpkwLekV7lcjWmXg
p2515
aVqYFIIdC7Wx8oN7xRqU82cw
p2516
aV7g_NIlE2AeyxS46DgQNeAA
p2517
aVJ-ZPcFUV3FI1LA6KoMnFzA
p2518
aVofJkkF9CpfBtZdnopzxJBg
p2519
aVOursSBHK7kwFEDD91i0o1w
p2520
aVwjzCw6rBDwnfZVKkM02jXQ
p2521
aVNJneOd0ovmHiDS0dDLLHsA
p2522
aVV8wIt96mfrLJc2Y0BuGyFg
p2523
aV6otX06BtZ5uOvTM7_VjF3A
p2524
aVmFw45WXkOMByq4k2op0NIw
p2525
aVgfbe0jloLHdlCflngyiUIQ
p2526
aVwBXqzfWpx5MKaP33vxH0CA
p2527
ag2398
aVPmow7gVnjDbpKIwafYI-XA
p2528
aV1BUyH7zjFlDqx9nzWZigxA
p2529
aVD0bltNaJ-Ak6ejkUUpWDEw
p2530
aVS6IK4KdWCnWeQt-_9CKTIQ
p2531
aVYR-IJDo7h6zQXf2pb9c07w
p2532
aV7Tp-J0La7FJtubAJpWd0nw
p2533
aVwE4hgzFkgZHm6hakRNyLjg
p2534
aV1x3f4TCx7uvE-slRYJp6eQ
p2535
aVaRKDmJRynUacchS2_3yFKQ
p2536
aVfhizCa69lP1RS8yHJUUBSg
p2537
aV67pDG1UqmMYym-LqtDdnGw
p2538
aVaKiE0aZ6vGyOlH-uVOHONw
p2539
aV1S1x7GT-cCinChE4bK-q8A
p2540
aVNBhp5TgshOcfwOYmZv-fQw
p2541
ag683
ag2407
aVgY7TJl5bB-UzYSo6Mo0ZOQ
p2542
aVVXAJvtWSzeFzZinJRs75rg
p2543
ag72
aV7FD_ny67bnS6Zm3oa104VA
p2544
aV84-VYasaVm6zCDw3T_LfDg
p2545
aVnjngMI0mhAGJ-kH0oo68Ow
p2546
aVmta3FuoNzjjGWQr9TCHGhA
p2547
aV0zhKgVmSsCVoFUY54tDibw
p2548
ag2419
aVQlqxPSm4UPLBXmfU4MulcQ
p2549
aVAiGMGSEAube0ch89f5C93A
p2550
aV0npoFM9jfQa7_NWtMB5WYg
p2551
ag711
aV7fqyfAKK36pjoeMyOD-XVQ
p2552
ag1749
aVcHnEZ6-BeQRlxFiF--sBcA
p2553
aVYrJzG2UyF6ux2A9v5-fLXA
p2554
aVFaqzugp5aAc9-XOjfOsDGA
p2555
aVWXajgebU9cnxHFFmIiZvew
p2556
ag2428
aVw5Y_FiGPSlPemJVxAZZToQ
p2557
aVQoC-UTIeginhgjNd2WQNsQ
p2558
ag2289
aVUmZdQID7QJoyg2R92mK3HA
p2559
aVkPvUu161qec_abmIZgJx7A
p2560
ag77
aVDreD6wAqGxb9EHRmRhVG8w
p2561
aVj4sLo2IOkFxrB_EzvKIJXg
p2562
aVMMCL6Ys4mBWW0ZYQ4FApKA
p2563
ag2319
aVTWIrHUi2TWF5hWoVwakNAg
p2564
aVpXrqO5rcNJexCGI9evpSmQ
p2565
aVhKxb9hKV6yb8K12Y7ccGMw
p2566
aVGvtiGYkOlVpJ5Dm2zmYM9A
p2567
aVzzFi7Z-pejLJtyg-SiGI5g
p2568
aVse_Kx22tdmaGldYSNwXlRg
p2569
aVunE4t2dqs-05zXZmGxlawA
p2570
aVGmJCX9A3BT-MOCv2uU8eYQ
p2571
aVhdt30xGrfLe-oWPXW91DRg
p2572
aVn9GCtjLzN9D2rL79KCljOA
p2573
aVvVt5l_oPjdQGkrL32p6DrQ
p2574
aV7X7Pz9TZ7ToCku9SE-toJw
p2575
aVFmBKx7mv-jdh6KJ7Vq2v5w
p2576
aVEylmyX5rhmz8zWdrsrNyZg
p2577
aVlffKaTyWZJh0yOAxt50QZw
p2578
aVwvl4-g3MGtDICRzA0UHPLA
p2579
ag2451
aVlS42krxXMm-HIk7dntRsKQ
p2580
ag1104
aVKpVhTeqORq0EDe5r-X0FAA
p2581
aVm6mUVUdkGuicmQHuqJH9yw
p2582
aVy83HgEUvkN3OIfqTo1PhuA
p2583
aV8-tgw8B_rsN_RyWnv4Aw6Q
p2584
aVIyZsBKYIWMiXSg5OpN5rEQ
p2585
aVLcATnTCFSbNsorH-00ds1g
p2586
aV5_cn7M-9swHrFbnqZtYGBQ
p2587
ag87
aVl-FOm1sOv1sfSFyAlk89QQ
p2588
aVH64vdIUDh5yPAPh7O3s0CQ
p2589
aVvkhdQ_wYdtG1gC3s5ckpmw
p2590
aVxzSUNTDw4avk8SBUMAErjQ
p2591
aVp2zm0HnXZkI2yCAuYLb45g
p2592
aV15vp-uhiGbFAqTRKHk27PQ
p2593
aVlholYBOUpMojaj3pkHEbfg
p2594
asVFish & Chips
p2595
(lp2596
Ve8Qygq-7q6hnoZpmAGCuww
p2597
ag1731
ag1777
aVQsTrnjZO0DEApcd3-8FeBA
p2598
aVfkUDph_kZNwNN1xKngeZ7w
p2599
asVHalal
p2600
(lp2601
g17
aVfEzgfxIbWXJYo9ttAYfjPQ
p2602
aV-3m_nXlyvdKAVNNmVirpGQ
p2603
aVRvgLI-vSsr-l7buDh1vZgw
p2604
ag2192
aVeVZGBIWAmQxiTwVYA0pjWA
p2605
aVxtyK6kDA4A2ASCVuU2vH7A
p2606
aVBQz6Kvgt7qgIAOiYfq_pYQ
p2607
ag751
aVADYYLqtREtu9WNtOSeTrMw
p2608
aV9OhPfV0C3Q49l5tSre2MuQ
p2609
ag2212
aVXQcSFSkoD7N_VcFGbMmobw
p2610
aVUzygjQQQpbp2OxjCVxjP0A
p2611
asVCuban
p2612
(lp2613
V-AQJhfna4qcxfDnCGx_yLA
p2614
aV9ScF7Bl_XXKBMjawtuBvNQ
p2615
aVtWN6-1uF7HI4jOBrkD42AA
p2616
ag1022
ag752
aV5Et3v7458hRZrx-42KetZw
p2617
ag1755
ag1762
asVCajun/Creole
p2618
(lp2619
VIb8YzGDYkaf7n4EMQ3-cRg
p2620
aV-GbYb_52q26daCmvAXDsRA
p2621
ag2051
aVHAgPykErkXpPJlwOHbY01Q
p2622
ag2177
ag2088
aVbf-6Bh9gM6gEJHr4tdd7iA
p2623
aVvqyOQ_rMBVbXqwsOU97n1Q
p2624
aVIzQSPwMVuFZEGofzhLWSkA
p2625
ag1556
aVBXF0D4UnD-dvzGn7lgTvtA
p2626
ag1706
aVSay8vUn6wmlb-HMHFsK2Wg
p2627
aVg3xfHVpKPQPL5NrZIqx6qg
p2628
aVQptaeWyVZICXodBFkvdLww
p2629
aV1Zp_NRrMLuri68EJwbBAnA
p2630
ag1718
aVLjcM-0PUF2Z5vXXz-gYSaw
p2631
ag2036
asVAppliances
p2632
(lp2633
g2243
asVCafes
p2634
(lp2635
g143
aVgclB3ED6uk6viWlolSb_uA
p2636
ag2255
aVkXC-xNb0P3kq7GOaGrazKw
p2637
aVCi-Lqfacr2OHg6OwHEloSg
p2638
ag2231
ag150
aVa8ZLRx-NyaT1RtcykR2DCA
p2639
ag808
ag2256
aVaqmS1P71bWX2j8MFNAweBA
p2640
ag814
aVQF0M7gvb92V_wpi7hEdgyA
p2641
aVFSwYtdKnrIQ3ofqMShHKJg
p2642
ag168
ag660
aVyNW1FXy0mSMBipgCA6Pmhg
p2643
ag2257
aV4uWVO2xAVZNk6hDVk0QChQ
p2644
ag2054
ag2261
ag665
ag766
aV6iDu9sz_MvIFmWyyY3u_Vw
p2645
ag2262
ag2263
ag1550
ag2265
aVCKtfGOtPkLnZASAPw-iXQg
p2646
ag2267
aVJCgLWYjoPJlznzFEtnzqKg
p2647
aVZRm8fSEBn8DsSLD4o7T4hQ
p2648
aVeZE0FdYB9rUvbuPS4fNyYA
p2649
aVFhruvcEWQzQSJgiJ06vX1Q
p2650
ag2272
ag670
ag1855
ag2273
aVMjHULXYJDc9XMM2r24oddg
p2651
ag267
ag273
aVDGxYONwWet7Ihl5eouo9mA
p2652
aVGia-6TO8WwPMSHdn86EozQ
p2653
aV_yHIlwnpDGUyo2qyjtbsHA
p2654
ag2276
aVx4PUZZ_ueLOqVxH26YxlMQ
p2655
aVy2m_gh_DnlZ_pGs9RsLdzQ
p2656
ag679
ag762
ag1892
aV5bblQoteTIMAsStlX9PBXg
p2657
aVPlK0B8T4ixhteqFXkwysZw
p2658
ag708
aVSIC7-xYVXM7-prOGI-DnXQ
p2659
ag2285
ag351
ag354
ag358
aVuOsR1t-0lP2IvwlycttRvw
p2660
ag1262
ag367
ag35
ag1267
ag1554
ag2287
aVBLZ5kHDNVf8nnIRaiSJ3Xg
p2661
aVU6oI7ip50hnFbZkJQ0bFGQ
p2662
ag1483
ag396
ag1761
ag768
aVmQE2m_IKbzmr24-BE4wqjA
p2663
ag404
ag1010
aVL6EvHNw1mqIBsIu_b5oEuQ
p2664
ag2114
aVz3m9LqyBlEIFhY3EbUXPHg
p2665
aVmDjdwwI-8zihQ4ZvpKeHcw
p2666
ag431
aVBu-D_mYJWctqUsqXZAJR6w
p2667
ag1027
aVZlgAVJ6x5PifqVVAKiNpYg
p2668
aV2SpXnnhhq6toPrvgA8lVxQ
p2669
aVzN1nWYBHTL4T4onTRoqE6g
p2670
aV_FyFa245YqvWrmCn5zqtlQ
p2671
aV1U98sgk_ilfPl3IezwhYkA
p2672
ag1974
ag1507
ag132
aVWNjidmdRadrFFdNmBq9Osw
p2673
aVfiNQSUU0Fd-FVt8InI4hhg
p2674
ag105
ag2295
aVCS0IkhLaW6VzPDmn1Qxe4A
p2675
aV0vG-9vALQvqRCSDym6tIjg
p2676
aVtOmQeTN7gFOZH1EsRMhnLA
p2677
ag2019
ag1655
ag2024
aV0tNiadtO-oLQ1RfHN1vgow
p2678
ag563
ag2300
aV-wmSlz6kOt99viC6eH0mGQ
p2679
ag2145
aVdS82r998PaNewbg02DREpQ
p2680
ag583
aVMSsCcUmCq9SHjos7yUxIFw
p2681
asVScandinavian
p2682
(lp2683
V6wllqYpGO54RQSYridyURQ
p2684
aVfkmdfSRpanemrkssQSHufQ
p2685
asVGreek
p2686
(lp2687
g1423
ag792
ag1424
ag1425
ag1429
aV76hIZMzHZ_lFM0p2N7_gRQ
p2688
ag1438
ag1444
ag1445
ag1446
ag1447
aVX8vScMNpnJ-k_JkiZUXs9w
p2689
ag1193
ag1201
aVvJ4RT5V4AcPUWFVbVkQoCQ
p2690
ag1449
ag264
ag1451
ag1454
ag1603
aVmU17Eeit-6smjUsKBVUpFw
p2691
ag1462
ag1463
ag1464
ag1466
ag1467
ag1468
aV190xQH8mcZugoxNM_0OAvA
p2692
ag1469
aV6WLK1SLStxqJxntvFh4NUQ
p2693
ag1475
ag1477
ag379
ag1479
ag1480
ag1481
ag1488
ag422
aVkyXEnWKQGWSThY6EcjORuw
p2694
aVlrrUyxzlvqp-niBEj6_6dg
p2695
aVPsyoQwBcxs98DP-2tBOv6A
p2696
ag1494
ag1495
ag1031
ag1496
ag1639
ag1500
ag1506
ag1062
ag1508
ag1073
aVkW5Y488LTcIULkX_kG5Vmw
p2697
aVrYC-3zDPHSh8Q0GpN3pfug
p2698
aVzpRlUtFn6aWRH4YDDuv1BQ
p2699
ag1512
ag1514
aVeHYsB4AfvNtf_8Ps-SZxlA
p2700
ag1515
ag1517
ag1518
ag1519
ag1521
ag1522
aVa-3DWmBxkomDFNFhFuV_Ig
p2701
ag1524
ag2144
ag1526
ag1527
ag1528
ag1531
ag1373
asVBurmese
p2702
(lp2703
VsH3zUEyNXNYzuaU9UomKqA
p2704
asVWineries
p2705
(lp2706
g125
asVFarmers Market
p2707
(lp2708
V9gUiPyhzg8YoJq2a7Tc-hQ
p2709
asVAfrican
p2710
(lp2711
g703
aVC2E1E0o-ssSrf_dokwxTXg
p2712
ag862
aVtFW5YcoXnKz8xRA-l3gRWA
p2713
aVaVBHU_OAEau7sdk73EpNwA
p2714
aVSoiQJEuE9biX5cwBvlMVLA
p2715
aVtUC7QwsjFW0scMKef_2swA
p2716
aVUZw6rwsRE2mXp0dfHLtHRg
p2717
aVZBi3FCNSGYSs9lM-5FKcbg
p2718
aVZcTI78WOKE-iLAzAGccOvA
p2719
ag780
aV7GpqkOx38q7DaSHpuj-4Fg
p2720
asVArt Galleries
p2721
(lp2722
g121
asVIce Cream & Frozen Yogurt
p2723
(lp2724
VjarN5Qu9Ana9qJwTybNh0w
p2725
ag164
aVkwMJ4KfhEcrk9jiMe-S6wQ
p2726
ag220
ag602
ag1840
ag2075
ag97
aVKF1ngA96RBiRM5h8V7IQ2g
p2727
ag309
ag321
aVYn_1J4gwtm2MzQIU7yHJ8w
p2728
ag349
ag395
aVKG3Y2qyrru2SZxR_c5gHyg
p2729
ag438
ag472
ag713
ag1994
ag1354
aVoBnKOFvJqVFNhiF0YFjdCw
p2730
asVBars
p2731
(lp2732
g785
ag786
ag787
ag788
ag789
ag790
ag791
ag792
ag793
ag794
ag795
ag796
ag797
ag798
ag799
ag800
ag802
ag803
ag804
ag805
ag806
ag807
ag808
ag809
ag810
ag811
ag812
ag813
ag814
ag815
ag816
ag817
ag818
ag819
ag820
ag821
ag111
ag822
ag823
ag824
ag113
ag825
ag826
ag827
ag828
ag829
ag831
ag832
ag834
ag835
ag836
ag837
ag838
ag839
ag840
ag841
ag842
ag843
ag844
ag845
ag846
ag847
ag848
ag849
ag850
ag851
ag852
ag853
ag854
ag855
ag856
ag857
ag858
ag859
ag860
ag218
ag861
ag862
ag863
ag864
ag865
ag866
ag767
ag867
ag868
ag869
ag870
ag871
ag872
ag873
ag875
ag876
ag239
ag877
ag878
ag879
ag669
ag880
ag881
ag882
ag883
ag250
ag884
ag885
ag886
ag887
ag888
ag116
ag889
ag890
ag891
ag892
ag893
ag894
ag895
ag896
ag897
ag898
ag271
ag900
ag901
ag902
ag903
ag904
ag905
ag906
ag907
ag908
ag909
ag910
ag911
ag912
ag913
ag916
ag917
ag918
ag919
ag920
ag921
ag922
ag923
ag924
ag925
ag926
ag927
ag928
ag929
ag930
ag931
ag118
ag932
ag933
ag317
ag934
ag935
ag936
ag937
ag119
ag938
ag939
ag940
ag941
ag942
ag943
ag944
ag682
ag945
ag946
ag947
ag948
ag949
ag950
ag951
ag952
ag953
ag954
ag955
ag956
ag957
ag958
ag959
ag960
ag961
ag962
ag964
ag965
ag966
ag967
ag968
ag969
ag970
ag368
ag971
ag972
ag973
ag974
ag975
ag976
ag977
ag123
ag978
ag979
ag980
ag981
ag982
ag983
ag984
ag985
ag37
ag986
ag987
ag988
ag989
ag990
ag126
ag991
ag992
ag993
ag994
ag995
ag996
ag997
ag998
ag999
ag1000
ag1001
ag1002
ag1003
ag1004
ag1005
ag1006
ag1007
ag1008
ag1009
ag1010
ag1011
ag1012
ag1013
ag1014
ag1015
ag1016
ag1017
ag1018
ag1019
ag1020
ag1021
ag1022
ag1023
ag127
ag1024
ag1025
ag1026
ag1027
ag1028
ag1029
ag1030
ag1031
ag1032
ag1033
ag1034
ag1035
ag721
ag1036
ag1037
ag1038
ag452
ag1039
ag1040
ag1041
ag1042
ag1043
ag1044
ag1045
ag1046
ag1047
ag1048
ag1049
ag1050
ag1051
ag1052
ag1053
ag1054
ag1055
ag1056
ag130
ag1057
ag131
ag1058
ag1059
ag692
ag1060
ag1061
ag1062
ag1063
ag1064
ag1066
ag1067
ag1068
ag1069
ag1070
ag1071
ag1072
ag1073
ag1074
ag1075
ag1076
ag1077
ag628
ag1078
ag1079
ag134
ag1080
ag1081
ag1082
ag1083
ag1084
ag1085
ag1086
ag519
ag1087
ag1088
ag1089
ag1090
ag1091
ag1092
ag1093
ag1094
ag1095
ag1096
ag1097
ag1098
ag1099
ag1100
ag1101
ag1103
ag1104
ag1105
ag137
ag1106
ag1107
ag1108
ag1109
ag1111
ag1112
ag1114
ag38
ag1115
ag1116
ag1117
ag1118
ag1119
ag1120
ag1121
ag1123
ag1124
ag1125
ag1126
ag1127
ag1128
ag629
ag1129
ag1130
ag782
ag1131
ag1132
ag1133
ag1134
ag1135
ag1136
ag1137
ag1138
ag1139
asVSingaporean
p2733
(lp2734
VzD04ZpH32mTKK3kLC4t07Q
p2735
aVp2INus4Aq6_BlKK3pn_-sw
p2736
asVChinese
p2737
(lp2738
VGZOJJ32d6E1M-IZ0TtZ8gw
p2739
ag637
ag2469
ag50
aVG7aOYRU2rQLrqdzjaKOl4w
p2740
aVl_pR3x7v2mvE3luVdmGuoQ
p2741
aVasCPMMAA1wW3GJvrPA4fTA
p2742
ag2151
aVrdCr5KnqfT5IsTOCfCmwfA
p2743
aVERRowW4pGO6pK9sVYyA1nQ
p2744
aVahsTGfePUyahRDUqcfue7w
p2745
aVQzb72EJsUwwpxXOMx_DOYA
p2746
aVCWk6yFOoKJH5URub5XsHDg
p2747
aVZiDnZGOCsr9xBGEL9ihzjg
p2748
aVNyuB4MGNx6izrBd6u1zNYA
p2749
aVAztY39QdGAkoKrLy9Di2yw
p2750
aVhpoUWb4V9t58CxfdNMYigg
p2751
aVMzFhaFNbE03zF84BPkN7yQ
p2752
aV1E2MQLWfwpsId185Fs2gWw
p2753
aVxULATz2siGXOPia614mg2A
p2754
aVkN6Ai2WOz8dEBC75l77iBg
p2755
aVjZGqAdBlDnrP-J7--vdPxA
p2756
aVZKKRhDiNECZKtdu9CSFz6w
p2757
aVj-2TSDEFu7QuEfwSC3SSAA
p2758
aVs_TqvH0o3AQCOgTdp2rSmQ
p2759
aV-CRjqZ4GxZ6lIa_qMj7-yw
p2760
aVu7fc6_zgJEnEq3rEkC1gBg
p2761
ag2480
aV8Xq5VtwYjayKlxEY2PipQA
p2762
ag182
aVQSGSWUCRzhoQa-v5dGoD6g
p2763
aV18PtRv3gFL4fCZ1Xm9P03Q
p2764
ag96
aVe1WjYT4wAeln4gJzAAjNPw
p2765
aVbLRet5wIxuGym7AXtIHdHg
p2766
aVKh0FOgeO24VaDHRCCQx11g
p2767
aViK553cAcqmyODMQbu19eHw
p2768
aV_PXfiL60ObKC9KUIMNiTRA
p2769
aVibhJdpz4uwcAYRXieRIPdA
p2770
aVF0GqoUWoMfNvOKhY7x0B8g
p2771
aVYJXWUCaO1wl3cqG6H-5e9w
p2772
ag2351
aVtAwPoaT1ZMeBwlX0yviiVg
p2773
aVp0wzC9-sC7hVl3z8vyf3AQ
p2774
aVOyBStpjF5e_iRCMXflFasQ
p2775
aV_CM6h878E6KROsy30kRXfA
p2776
aVEVkytEhlC1nswqmgrHdviw
p2777
aVW0CZaGjV9ud5mKhUGSfDfw
p2778
aVDId2r0a4C2ixCbuLApxx8g
p2779
aVIcnbR9w4VCaXg3mleNDtPg
p2780
aVbWBbBS5MRix53-fPvQxrYA
p2781
aVPo4Wssd5MCzVsUwBqFW3gQ
p2782
aV-ZsaskiFe2UH8lkmL9v_2g
p2783
aVTAzPXxJZmewNBjVHu6uGcw
p2784
aVlORvOUQWdp8DsCAFfTEWow
p2785
aVRdwJXTQo3Ez9DAbGpybl_w
p2786
aVsPd-zQtPSARMw1vx131v1w
p2787
aVwIhtFlx1DdDvYH0fjUAtkg
p2788
aVe88VWa9xdHmSFdMZne9eLQ
p2789
ag235
aVoUtWwORqz6XAhDpAxE1IiQ
p2790
aVpVEo85PDSz4xKo08q_VI-g
p2791
aVb2d8CP6sKQotFjzZX0Thtw
p2792
aV2ubKfUIPF_mWcF5k8KLs-Q
p2793
ag13
ag2249
aVoZFoTjiL78EB306hi6VfaA
p2794
aVgnqHyA6gY2-m9S-FKt6Xqw
p2795
aV2wMzc8MMdQhuZ7gLY3pXTA
p2796
aVt-xuA4yR02gud00gTS2iyw
p2797
aVZiDY57ljHICMcvdgPSmVww
p2798
ag2496
aV-865Ps6xb3h1LP67JcQ3mA
p2799
aV2FAcmH_IDlupUcgL_qrqEA
p2800
aVCwuNdisuchgoMQJmXslH-A
p2801
aVS24JsVLP-xcBYKrMGMzbCg
p2802
aVBmAHQ-qRIxszlJIUrPJMLg
p2803
aV2XudekgyIeqnqLCgxxG97A
p2804
aV4Ep1aEi5o9wDThzL4dbWuw
p2805
aVz7ICcj4_dBssbfAawl0miQ
p2806
aV7aZf5c1UNotq4MabBXMZLA
p2807
ag57
aVLsILevbq-MfE4HO8o9KunQ
p2808
aVsxZK2z_EKTK9E5Wg1eyXGg
p2809
aVHU0l-qI1zkgeOHYQGkuXQw
p2810
aVT0WFU_zBoeHD1-08TX33-g
p2811
ag98
aVkni47-g5-ux_JhCaxnJYBg
p2812
aVuh1SSWqq0-IV_BY78Lpz_Q
p2813
aV5hd25dj-giXxLlgdwaVA4Q
p2814
ag2327
aVkPRhhVfGK_rIQFG6iAWBdA
p2815
aVsKyz9G6_LHGUAV5jRraCuw
p2816
aVts5aB7jIh-6KBrshG0Lhxw
p2817
aV5dzFMuClH9CDvfaUuIKWeg
p2818
aVIRQmUno4GQMvEDifCXO-cw
p2819
ag1226
aVg4GftV6mzdTXXYr0S9egnQ
p2820
aVT1fAeUIvj8ZLIoDGFKpIsw
p2821
ag2509
aVt1XPSn5O1edDJwhJFYeEIQ
p2822
ag2278
aVGhL2I7MrUOdlehsjLrKstw
p2823
ag62
ag2510
aVQ5b0LCx-XryPmy89DfcP3A
p2824
ag707
ag2511
aVl5UFLdar8JHCzTQ1fe5gYQ
p2825
aVjNzF59Bv8ViHzTVuIMD6MQ
p2826
aVr8onTb0QC4lDqLbGsgQrgg
p2827
aVW6CV25UWatpZuD42o-Lcww
p2828
aVoq6XnaGGt7mwkxDGj8iGeA
p2829
aVzTGxLMOd9crAz0XNzqrcrA
p2830
aVhOEfdrIl7D5mv-4p2Q4x_A
p2831
aVv4VD3Uyf-d_JQJkIfD4c0g
p2832
aVTkZQZWDnVW0axfaqfqGfUQ
p2833
ag2386
aVU3RwirEkQUWSc6ir0Y5PeQ
p2834
aVLLGGe9k7NTVy1Z2wH1_Uew
p2835
ag648
ag2283
aV3_HMJaIre1kySwKXo9PozQ
p2836
ag2184
aViDDW5kjoLVN9rqrGM0cwjg
p2837
aVu6ICFIKz8UlUYuXDVH2McQ
p2838
aVtL4uIItUfB3BX1-Sk8pTZQ
p2839
ag2526
aV0cHDa2cXCF4PZzO2krXypg
p2840
ag2529
aVMBirSnTW4pt2k7Ny6KC72w
p2841
ag649
aVjKxES7iLV63H_PfyGVGIDw
p2842
aVDvftSGZy1jyarG7tpgTsMQ
p2843
aVt_yiQnxUDdPPCN2z4QyezA
p2844
aVknakMloQ9BeV8PiASnIU6g
p2845
aVSFbR7xihYx4hXvC92WATBg
p2846
aV3Ep-cHtiVbE6KpN6-mmMKA
p2847
aVqORXhU_iKug_O7vGA8jr1Q
p2848
aV9YsLJw8n4DBLsnchm-I8ZA
p2849
aVnvAzA52DiJhXaq-qQpADxw
p2850
ag2541
aVjkkIoYDnOcLlWwCDjCanaA
p2851
aVT6eavqkeaIrv4giuCeXTPw
p2852
aVgib-__dC9BwyqGvDrbSU7A
p2853
aV5fneYCWLhgBZQUcNPOch-w
p2854
aVU1txYVeZiQpblyNmHhcCLg
p2855
aVSUktrYdNQD8k2vvkM4OpfA
p2856
ag70
aVFUmqtjRsm30mJBcDIY5gxA
p2857
aV-6ncX3fnQ9OLCjfiUe-kFg
p2858
aVH54IpFMRBPxMwWsX2z9qmQ
p2859
aVEFWtz7tkjqBebrX7YUly_Q
p2860
aV_sUFonJ7J_-a6hq3xRYwDA
p2861
ag2197
ag2414
ag2546
aVw9h-pTp1K6JMos-xzl3Wyw
p2862
aV1V013ZOBrPdfmszLuVdiiQ
p2863
ag2109
aV51DwJDP5TOlsCQYc0GQdVQ
p2864
aV-BDHMsD-vg6nPnIkrtKPYQ
p2865
aV7r2ge7MKm8tZhxrwemvWGQ
p2866
aVOxr2kDgNUkMD8yq_umFfMw
p2867
aVoiAeXIRf5Q0p1dPH2nziug
p2868
aVLlC-NfB29yzc4cwjCmGIdw
p2869
aVGUoVncYpFzfxt2HJZFBqDw
p2870
aVf4nLS9TGGmcK-E6iAIovjQ
p2871
aVRHEn-QF2RBAcLhzLfpHLiQ
p2872
aV3grMlZ4eThVAm-chbFr3gg
p2873
aVy0HShkC69tyeSU-Ej4jxtw
p2874
ag2423
aV5Vn6sxKkzvZLcEM2yZcjfQ
p2875
aVxe_r55evVAvxbXau4QVLMQ
p2876
aVvsoEZauF4lrADIqCYXySFQ
p2877
aVC7SLHJ0GY_cnhNqDM2jSGw
p2878
aV-xWnofvRoOW5faO4x4z6-A
p2879
aVjDZJsIyc3jXjcTtJk_p8ZA
p2880
ag1028
aV4C6x1m81B_5hVSXI-aCXKg
p2881
ag650
ag2553
ag2555
aVWU26m_GsgbDe9ol-ywVsUA
p2882
aVBgmB-pf10Y2earHyxL37PQ
p2883
aVypwAHNow4r90cVFNfDoVAw
p2884
aVrGEeBgbztKbFDh4kum8x1w
p2885
aVWhcokCT4no2NBxHoXKVmmw
p2886
aVy0fCUbXtZjrYhOD2azr6Pg
p2887
aVnZC0ooChichlR8sUdy4DMQ
p2888
aVpKSppMqcIlQVRvSpL5WysA
p2889
aV5OY43DZbO-IwYSQ91yRyPw
p2890
aVOOQNc_SldoUqhY9D95WF8Q
p2891
aV5qtc1s-TKdgzPccKwY4SRw
p2892
aVKkAQY0ODXkD_LSUIDGx1Rg
p2893
aVaLE4Lg5uOGnewTTweXJNBw
p2894
ag2561
aVYsM1qDjivZvf-T7BUxS35A
p2895
aVdyaSQBKagPYylOJxsU8CMA
p2896
aV9noGrMhnUJztJI_tRVL9fw
p2897
aVqYkx8daPhY336rXQPsSd7A
p2898
aVO2jCWIOWb-IhyZGZLTNNoA
p2899
aV18mJ05P6WI74K4oreCah3A
p2900
aV8YKUUBQVMHDBWmqY1W_dXg
p2901
aVKX4oiVIK0IFiW0Lb50U9xA
p2902
aV2VQDEQuK3xLFNktPBIpmuQ
p2903
aV7TStzQMNtPQIBNaIYcZ_zw
p2904
aVejHduGcJr28ehsdSXaiZXw
p2905
ag2565
aV6vVkSaymw-4MOTPh68HN3Q
p2906
aV0gmCzmFz99KDIedYc3eAvw
p2907
aV_Q7Q04xMtletor5BwDf2xg
p2908
aVLXLnz5qXDCkCV0tIseCeKQ
p2909
ag78
ag651
aV5NVNkCcTPYYMxQscrIAP8w
p2910
ag1791
aVM7ZJfnfZlXNXSNgyJbAszQ
p2911
aVcu5oiIleLVa5eXH6X27KMw
p2912
aVpMRVYn_xcAShV8y71mXMoQ
p2913
ag80
ag81
ag82
aVMZJ9QAH-hgvtuL49a6D7bQ
p2914
aVOhGOdDlZaq8MquvQ_wkSSw
p2915
ag2445
ag2573
aVGOjM-qaMKUrCOf8Rf6_S9Q
p2916
aVG5OTROd4bYoLn478GteRZA
p2917
aVJJ02voBR45HyTkfpAPDtgA
p2918
aV8z9_PMqlZeInH4dZuAhD5w
p2919
aVwWzpYafJKy_FZ9gr5cG8Vw
p2920
aVWubmhDaK703TF4WibZ8ZzQ
p2921
aVDOeyLO90LxcnAjZxK-s9HA
p2922
ag652
aVyVI7U_6cDhmDwV3iaGbrMw
p2923
ag2578
ag653
aVfANtyfE48C6LZASysjtdKA
p2924
aV3uJAt1EHG0x9pz_c91AHuQ
p2925
aVWzMfj_aR-N3cLDes0tLW1Q
p2926
aVzswdqM8Av3KxVv9o7_6ORA
p2927
ag2582
aVcMQvey-VcLDlgWAMidLBPw
p2928
aVgXnY5sxMc3glY4APj43Dkw
p2929
aVHC9E8-yBfMKkJTTvelRLyw
p2930
aVlciO4GYuQUrvNNAI-5PiMw
p2931
aVjDhNPKNJ5N2W2kEvgpBPCg
p2932
ag106
aVpeDlX3adeBZJerxzF_5l9Q
p2933
aVf2FfutZhb4F-m1Ob0EdYaw
p2934
aVccdcyzc1oSucd-qRlnYR0w
p2935
aVWJKA3MTOMEFcPCSMaytLVw
p2936
aVGLSmybF0Wu8nWqNdfMTSYA
p2937
aV_-460MubqIbfKr11xjItvA
p2938
ag2027
aV0msAbcZIxbd0SNScpNaDkg
p2939
aVR0IXF-0u8cevByx0eWeNWg
p2940
ag1363
aVM-i-xXcNySTQrUCxJMwntw
p2941
aVFPL-OV5Pk5RkMW3yrAzO3A
p2942
aVNPkcplXxz3K-ibTBb9mnBQ
p2943
aVE1l-p6JLZAxqxbju2YKYhw
p2944
aVXODz0rilGYo6_xd5e7isOw
p2945
ag2590
aVthlQuACT7g1GQLA-45pfkw
p2946
aVliWxota5DH7Roo-iv0pTmw
p2947
aV-_EmcKU7HFLaYk_5TVWYrw
p2948
aV6hAshUWJolieHNaY8PZkRA
p2949
aVvcK6oZ2tAniie5Zt3ympXQ
p2950
asVBurgers
p2951
(lp2952
V81IjU5L-t-QQwsE38C63hQ
p2953
ag148
aV_ewEvGkaCtNMzhqgg7STLA
p2954
aV3rfoWwB2LsG6TSbmKk3C-w
p2955
aV03v8CXLbnGrHB-AxEV-8rw
p2956
aVmsBRtJxN8iN4-MtLlDM_Eg
p2957
ag817
aVGFMUL8Z44l1wD7KXop18sA
p2958
aVd09ros9QhLRs9EgWbkkvvg
p2959
ag174
aVT6L7jSCut_qihlUxb0be_A
p2960
aVZgCEWi4ERaNXEguT3Zde3w
p2961
ag829
aVcFp-Kr831uIA3F6o5aeV2Q
p2962
aVMAW0cVbtqZEoXVESDkVDFQ
p2963
aVs8_cb1ArVaRypkda__Gkvg
p2964
ag186
ag187
ag645
ag1769
aVQ872Q2cOxRNPBwL4ukfw8Q
p2965
ag766
ag205
aV7j4dCdD1uNnTtP4Gl55acw
p2966
aVcODc6up6Iwxa5ovhF2EJIg
p2967
aVQFcp5kT7eHtbLxRiwiekiA
p2968
aVkjrq7LOaMawzLTVlLMpApQ
p2969
ag11
ag1772
ag1838
ag866
ag228
aVOdAC92_WUTFCcoAqGR33kQ
p2970
aVAynv2WtgWKwf1af15AOHAg
p2971
aV7sPL919oMVV4TWDn_HKEdg
p2972
aVuZLrwhCDu8kzv-r39IOa8w
p2973
aVhzSyQBWeoX94WOpUtxuWVg
p2974
aVNqLiTOp3wFxmFPqMa3-DRQ
p2975
ag2249
ag1848
aVS3uIl-IgSMXwBwhJcHCZMg
p2976
aVW0Ralo_CGj0XeROjHhx4Pw
p2977
aVWjX0kSRilSfzGbkQ7D21VA
p2978
ag1448
ag886
aV-zbz8j_QT4ao9blYlyxRZg
p2979
aVZ2qMwUhnGt_2pA9uQbS7Uw
p2980
aVcfjkP0icF3wdaOJQJUy9sw
p2981
aVdMKrQ13oZHtrkHMSx4EpEQ
p2982
aVrOz-CdlC86zXuwujqeV54w
p2983
aVgMVulEfpWnYafS7gwgboGw
p2984
aVpUoI0QPa7JiNZi0nY6a-eg
p2985
ag2083
aVYjm7Lw8_PLPBRwDlaCHvsQ
p2986
aVP8nY22PirIp-d1GpDn7qnA
p2987
aVsAf2xtvoAzDAyWq3YO11Cg
p2988
ag907
aVzJX2dUnplfeyXjmfHp5f8A
p2989
ag282
aV_yVWZKwr_9ne_7ShMscWjA
p2990
aVmd_yYBbMi17XvSIVALlmnw
p2991
aV4Asa_ZggWWgr5EAuTUY2cQ
p2992
ag286
ag1873
aVihu1SSJqHXEgdSb8qyT3pQ
p2993
aVYgC6YIrygcgn6JAId38ezw
p2994
aVLMkjYjW17gyckgGVxEmVNw
p2995
aVrAGUK4WpyvFLyhEtxSVqXw
p2996
aVBfGlv6S_Is6OkIoOngAnLQ
p2997
aVBTOz5Mmq-nJC92ck48vjKA
p2998
aVtIIof6-zqlgxImFNDEIj9g
p2999
ag1882
aVxD8yBdisKKK9r4PFO7x6Mw
p3000
ag317
ag2179
aVG3d-xJF_Rt-P_za2eZ1q-Q
p3001
ag325
aVM_SG-qaDXMtuSruJW0r0Rg
p3002
aVE6RblZu94XhJcOrkMMfefA
p3003
aVUopVUJ32ASCt-ek3guCmwQ
p3004
aVSlfJo2ebEtNxcPGlcOx79A
p3005
aV5Ji5L2GF0ppuwVyC_ET6mg
p3006
aVHIsY6T7YhkgRRCVZ6dPBIA
p3007
aVjlgt6CKQY7ZfW_36pNs_nw
p3008
ag1779
aVqCmJ3StqvWuHEYhkwYZg_g
p3009
ag964
aVc8YVk4S6lqUf6rnpHaKouA
p3010
aVRG2RW2nkCOH0dYFmTvdiXg
p3011
aVC9h4UgyWTsVk5zszgcBv1w
p3012
aVRUnGQSQQMUw-COVhNBb7iQ
p3013
aV_jzg5LAmk9etkTCfq7XEzQ
p3014
aV2faHaK3FPhfzFvJZ5i3U9w
p3015
aVGT6GfdtsLhkwgBapRKGwPQ
p3016
ag380
aV6i9oiDm2cX7cd9wwYEUzgA
p3017
ag989
aVrkKczeBrjybOhwk3TdiHow
p3018
aVNDWxZuCFsM6isNjTw1stnA
p3019
ag993
ag1928
ag22
aVSPDKXBx7yC3lAOY4fkGN2A
p3020
aVV9A3CdalNm9EB8ei_pZEaA
p3021
aVfqglBnvsDzii6hxQ5a78cQ
p3022
ag418
aVdw3ukrM4VTRfgJEkCB-cIA
p3023
aVPUyZcKYvrNZLzgRfM9evRg
p3024
aVRnq01GgYMLDAe8vGMwH1JA
p3025
aVUBj0aJ6FfMR4tdvRbQ3KSA
p3026
aV-CQkVUNdNnWvcMtcsxXjpg
p3027
ag1786
aV-kphusYansF9UdFhpG1r5A
p3028
aVttORlHK9Aev-jrVFzLggyw
p3029
aVNuvWsd7os1l6Pp4Map1xPw
p3030
aVgW8MBkU9W1iMCdQIg6_lJg
p3031
aVIzIww6sIcBbea1pXYNuFZw
p3032
ag1788
aVPPQgcw0WKdZ6nznkPLgX5Q
p3033
aV91QJ2ZCKTIsN88SxTm1r0A
p3034
aV4A3NH14ohorJc0s_meewkQ
p3035
aVbpTcfHpiR3gH9mXZPsfv1g
p3036
aVszmLFKB_wzz3Fb4Tqg3r7g
p3037
aV03YvOhFTsq232dhuxS39Rg
p3038
ag2122
aVxINKkwcF1yhaV81f4xs2gw
p3039
ag1051
ag471
aVTHJN6kVcPUD2T04TrcmZng
p3040
aVnXXfB3-tIIZczK4byP8JWQ
p3041
ag770
ag2598
aVZ2W3K8x9cRGXvlGWerZH-w
p3042
ag485
aVlFcEnVTo16Gi-hlfdvAATg
p3043
ag486
aVhZg_-x0l7EYiQ5fWyTEsJg
p3044
aV3jTHc3OEwM5GSfyXzeblFw
p3045
aVHaQVfc3fGPAmOdWdsPU6aA
p3046
aVFhXaj4xb7b8B-QaHy2wvFA
p3047
aVnfp4fmHmsOUUQJhkePBz4Q
p3048
aVtx-RvyrgducHwWkz_b6Dqg
p3049
ag1075
aVrgGtoVqKoZSyqwM3LfMKtQ
p3050
aVf5nja4dPNifl6ywQStdQKQ
p3051
ag1079
ag512
aVln57otfbTmN8FsLlR4x57Q
p3052
aVxZD4d_xSi3rxClb3NWOFyg
p3053
aV5veVycFeIgzpH8bXkIPisw
p3054
ag1080
aVjopjqDfrNnCX4nj_pE-rTg
p3055
aVe-bPVR-d4eygTu5XOodU4w
p3056
aVcsS_UrBujOvjASbX3gLW7w
p3057
ag1086
aV-7cDP00Kwa7zOtP6-B3s0Q
p3058
ag1088
aV1dS4wRFdtbPRy3tHezpNQg
p3059
aVoiTq668GwyXo5hMHjdW0kA
p3060
aVNRQbIOVnEnsJ8t2xg7W_zg
p3061
ag1097
aVGdQIepxgxOuvw3CMZoFP1g
p3062
aVc0M5iXGASyLB8or2Zw1DEA
p3063
ag2296
ag1101
aV5BUI5QdO85L7JVMNMKJj5A
p3064
aVAlm1NXgFwT2gJ88RpBXW1w
p3065
ag1563
ag2610
ag2583
aVIBSY8SXOkX0XCTy5CiLEwg
p3066
aV78mHt4bZNmFvw3jN1z3mHQ
p3067
aVfroxnvO6lVnzrTBS4p_W_g
p3068
aVnD4cF5IH8RE7LFGdR2FMUA
p3069
aVJTgm_nkQ-k6DTdV0mo0hYQ
p3070
ag561
ag1128
aVhCbO5_Gq6WUz0x6N9HeJ1g
p3071
aV7x_YVwRP6qbn9nZC1iWDuQ
p3072
aV8PE1KtG_ZMxcgqCseHhmLA
p3073
ag1564
aVth4pZ5LkoIIkb1Vmu_m2DA
p3074
asVAsian Fusion
p3075
(lp3076
V9m5s_UB5SZCz56hrONB43Q
p3077
ag2466
aVjfZXp0POls-M2cgSxsS8fw
p3078
ag2472
aVjaFQtv7ysd_DZNAF-RK8cQ
p3079
aV9PQDm1GGAAN1ko03DtGtrA
p3080
ag809
aV6mZT48b5f2sUwUuzrhiEMg
p3081
aVSZHJsSqbIpURYPXtKkrF7g
p3082
ag2337
aViD6oJ4qcM3RDF4PzKkk7fA
p3083
aVTvU8F_N2QM2KebTDtubLxA
p3084
aVloBOs5ruFXSNL-ZM29cTrA
p3085
ag1815
aVDGE4jkh8EIqiOJ3UyVLb4Q
p3086
ag1379
ag2478
ag179
ag2961
ag1437
aVplRUSuB_uY_dEgcMqeZMYA
p3087
ag96
ag198
aV3gVSrS4kffGGZT8oXHsIcw
p3088
aVJCmqRFviEqfGUT9zrTzSzA
p3089
ag2161
aVZiOvvKr0gwp3qH7Bu3YyTg
p3090
ag2355
aVgCGZtjJoCjis143hl5V48A
p3091
ag2356
ag2778
aVVezCWH_yg7eHU3eOy9K98Q
p3092
ag1447
ag2784
ag2360
ag2270
aVjxTZafP6SAsFEZzNmjQqbQ
p3093
ag2795
aVr5zl6fxbtQr-tD7G0fePIQ
p3094
ag2166
ag2167
ag2796
aVxPx6a3fkZLYOwS94nbEr4A
p3095
ag2804
ag706
ag1858
ag2370
ag910
ag98
aV01aDhbhOQTitZHji95TmAQ
p3096
ag58
aVyE4k_CM9L0yPVVozyELfSQ
p3097
aVKKCc0UwSpqLl3PkdB1Yhew
p3098
aV1XBAEhVJ0ntuWZU4PMsxyQ
p3099
ag1226
ag2823
aVFJsh0TOIQJWj3aQP4Yg0_A
p3100
aV3iS1I2RfO3bLsnnA17e7PA
p3101
ag679
ag2381
aVhKQsbxqTWumRK8OPk3uoEQ
p3102
aVubOQE496Uom1VreA7MkZYw
p3103
ag2387
aVvAUDxhbsWZKI8NJlsYwCMA
p3104
aVya60yzziKMfgyFLAdUNdFQ
p3105
ag2526
aVMwlvpe-K2JVUKlnyqYqGGA
p3106
aVUV4WVXuAMZK620_T8KFwSw
p3107
ag355
ag640
ag2535
aVT42uQiJVIUqTTWMmkQtDiQ
p3108
ag977
ag2193
aV03w8pzPbE51xMi8rdlvYWg
p3109
ag68
ag2416
ag1936
ag2202
ag2550
aV9XZ74o-w4XKZrMbwgJzFXQ
p3110
ag1946
ag2315
ag2427
aVmppWsveP2lfKLv2O7HuiCg
p3111
aVsnV8jGHnoVWBNJyRUBJYug
p3112
aVBvtAf1AAIQeM7GvlEZ_cQQ
p3113
aV68HNLNwMfXu1NuL_2E4N7A
p3114
aVRD-icRypSMg6nA4Xy8dCUw
p3115
aVFpm3WvqtrAg2ueh_4pz7iA
p3116
aVVBhPgceaKWOXT71d3Jp38w
p3117
ag1501
aVV-rY0hlPjAghV14jOlVUiQ
p3118
aV_zAGBUwZ3cQmMSd3_efjog
p3119
ag2566
ag2569
aVvr_5qzCDx4PmMjnbRL6DjQ
p3120
ag642
ag1560
aVERtlxk4e4xre2S6i-MamOg
p3121
ag695
ag2578
aVlGaVIq0oiRSRmtDZvMTljw
p3122
ag2580
aVLQ76xwYb7rJNzdY3xsYHvw
p3123
aVYEUgaDmoKvYQynNgVGenbw
p3124
ag1104
aVVMmGHyGj7nuj16voJkfuJg
p3125
ag2581
ag2455
ag106
ag2023
ag1358
ag2939
ag2458
ag1134
ag1139
asVEthiopian
p3126
(lp3127
g2712
aVyLx8vO015iMCbxsI045Vkw
p3128
aVdJEbgtQRF_-cjPK_KEBz3Q
p3129
ag2259
ag862
aVN2g0Com0YXFgRLIR4KLEuQ
p3130
aVQFJCpzOOEjZRRKLJwvSV4g
p3131
aVtbg4gR3jUUllR28cySo2kg
p3132
aV0A3irNk0Kb3vQasADoQCHw
p3133
aVySzkBv-_DTNT30eONPnAkg
p3134
aVa80CAB0Wa7-NzJtPRAt0ug
p3135
aVvQaei8xkH8u2W5gHToRcXw
p3136
aV5eVN_Y1-lXa2p0_RCoAMVg
p3137
asVFood Trucks
p3138
(lp3139
g2155
ag3105
aVFxGI8dfx-hNBfkVFmXrwyQ
p3140
aV5vAtunQlPFkfdTI9zn4TIw
p3141
asVHealth Markets
p3142
(lp3143
VyxNfdN-N20dRI-13hA9tbw
p3144
ag483
ag2631
asVPerforming Arts
p3145
(lp3146
g110
ag129
ag136
asVTurkish
p3147
(lp3148
g1430
ag1434
aVRyZ3dMJWuFMs2S7zw2C0Zg
p3149
ag1456
ag1457
ag1465
aVHWbCConiAKYdPnkYrsxUzg
p3150
ag1505
ag1513
aVmKoi3QV2d45Qm3iWt1aa3w
p3151
aVX_F53ZyIQT3Y2iSvWRLXEQ
p3152
ag1523
ag1532
asVHookah Bars
p3153
(lp3154
g810
ag852
ag879
ag884
ag889
ag958
ag975
ag1003
ag1006
ag1031
ag1039
ag1071
ag1072
ag1073
ag519
ag1124
ag1131
asVMiddle Eastern
p3155
(lp3156
VyLKoESPQ8BN7dn6ADzZicQ
p3157
ag1429
ag1433
aVTTsPXpyxJcfj7g7hsjtx1w
p3158
aVlXVJLzBNEd5qWuoX1d1okQ
p3159
aVQNgOyKQNDZ2BED7c2gctuA
p3160
aVNqS6uU5ppWKw8qY48nPkFw
p3161
ag733
aVU5ymBHBNomyBV58WZlL_Vw
p3162
aVcKb67EiqYVNDtQ1sRrZSQg
p3163
ag3149
ag1441
ag223
aVPTtP9zS6h7ZYb3zmc1aHcA
p3164
aVn3KaV4ojMr34zdnJBTvRAw
p3165
aVtjTwk_4ZmO-Gt1qlq4tnrw
p3166
aVPY9RzKwk6RW0DBuqCSwZ_Q
p3167
aVGbgUO9p2O7-7m6eAuECA6A
p3168
aV81NtqA1Z0HkS8DywxDbkQw
p3169
ag884
aVrKirSxY1-ScGEzQjfYSI2A
p3170
ag889
ag1449
aV8EqhQa4rn0kJ9B11l_cwfg
p3171
aV7siEeRGqAJ730IkwAtcWAQ
p3172
ag1459
ag1460
aVbgxDswHIdFP0Go0pNfyAAw
p3173
aVIpx423BSHRNBXuMwUHBxqw
p3174
ag1738
ag2603
aVLWd8Jv6PZNkW-4VVY7ZHYw
p3175
aVpiCnrr17CbPHXfYHb-x0og
p3176
aVC1OLx5RjPgBM4j9q7sg12Q
p3177
aV6CjVFTO7F-q8BP7oQKB_9g
p3178
ag1466
ag1616
aVn_KosOPSHS81Yq0D6X3peQ
p3179
ag334
ag1617
aVBqsbH5ANSL_z8h-YAVGXqA
p3180
ag1470
ag1471
aVvduiz0X5uSGxIh22LrjzZQ
p3181
aVAHC01qlTiuHn-pHVQ_4DGQ
p3182
aVfaP7QJNHKiuVDwhXgr534A
p3183
ag975
ag1474
ag1475
ag1476
aVvIln3QvYAAZThdKWOVZ7aA
p3184
ag1482
aVwPzmNx-HVppGCx48NiqsxA
p3185
ag126
ag1484
aVJ27yz2L8PoubYmfi_DWrSA
p3186
aVxxpmk8L5brmg3DMTu4DIGw
p3187
ag1006
aVUZJ361wkdyZfxWax3oc3rg
p3188
aVHaNkWM2kccUtj_0InltMow
p3189
ag1936
ag2607
aVoKmKXq_HCri6F6C46g5EAQ
p3190
aVk3QGiTcSDp0D_4ZrpBVDpg
p3191
ag751
ag2608
ag1492
ag2203
ag1750
aVYWSsD10TzzqE1htRG9fQKw
p3192
ag449
aV9qCjkJvgnpzOjKLodDEMxw
p3193
aVbVk4c8InJD0YiiNwYm01vg
p3194
aVH8TAPuQZa_pFaitbRnpY8Q
p3195
ag2207
aVRask6jFqoCZLUuVEYf1fBQ
p3196
ag2291
ag1505
ag1071
aV18xZwAzzShCRW_d8ZPpV5w
p3197
ag1513
aVwUrnir4yQj4Lnta-jdqqxQ
p3198
aVYeRXjIzxc9FaK6uyrTBvkQ
p3199
ag137
aVPHvRQsgeXd7jkGUThXauJQ
p3200
ag1517
ag2611
ag1520
ag1522
ag1523
ag1525
aV49aWvkH7YsJFcu4LF7acPQ
p3201
ag1131
ag1531
asVLive/Raw Food
p3202
(lp3203
VWdgVF9ppt926xDLfDoZE0g
p3204
aVM70Jr9yUWCDfoTsZS3uq7A
p3205
asVIndian
p3206
(lp3207
VoidBvZouxEal1NWe5ARrVw
p3208
aV3frFidAcPVYAFB2RxxkIdA
p3209
aVINaAXfbIXtXTB3sSDX8Wow
p3210
ag3157
aV4KBLVr3PYilTUUWj3DWwVw
p3211
aVg6NXfYp1ZeJjUQrqne8-Ig
p3212
aVVZNKj35pKzs-fR8_CMPrgA
p3213
aV45xpE2cBGTZ_z1YhIv5BbQ
p3214
aVZ790cn7ThAuvm-j-hNnukw
p3215
aVFEeEcwNS-TRtDYA5ClCDdQ
p3216
ag3085
aV2C_ggj_PARSy6a-qnqEkrA
p3217
aV1iIngu2lUyDhkpp4XXdXog
p3218
ag732
aVsizgsuBgbH1ShRE5iDTjxA
p3219
aVN1ZXhAVzOzbyCBPEXTaUUw
p3220
aV7zDbcbUkafhkanpTE5TQRQ
p3221
aVXyCYPxeZd54UWgIFXsjtgw
p3222
ag735
aVOr1equYHL3Kr71L-D-QjoA
p3223
aV7U7uLS9YjjhBM1SoyNH30w
p3224
aVEe7h-Pp4jhAEQVK7ay2AtQ
p3225
aV3FB30LGJfWUKxRqwXfq9UQ
p3226
aVz43Qe-kt9TWf5OXCwGJKow
p3227
aV-4ArSF1om4JXNBA8wAnQyA
p3228
aVsCPH5jyB8vYjA9tyaUEsGg
p3229
aV5Dy9fuSYcd4E3XGQRZzOTA
p3230
aV1n-HH6BG913cKQ1tX3wQEg
p3231
ag2163
ag2785
aV85K-cPS0OxReXPMbyxwdUw
p3232
aVKgfFn5Z51DZoUzhJ186a0A
p3233
aVscun7XXs3zyXewDLyUDjXw
p3234
aVi-Td9gDwz4xLLYv5soGp9g
p3235
aVCl9eNsG77yDH93hzmwD5gA
p3236
aVx2DT3JChGK3zCmBl2meApA
p3237
ag2168
aVLLpBlaF4yF3uG9mnQpX5SQ
p3238
ag2496
aVFtu5JVoK5JEZAc-YABU0oQ
p3239
ag1455
aVWDRhWbB-wJXGFsWvRAAY5Q
p3240
aVj4PVNCpxS_U9rw0yn-Tiwg
p3241
aVIKpwHpcHWvvQmlfX7IgYWg
p3242
ag739
aVE6QAh8UPRo6Tlg6hkcWCHw
p3243
aVY2I946V78wOdwaUD9chmqg
p3244
aVSmLJWc73PcL3gox-LiVAaQ
p3245
ag1738
aVQnLmcioGcNhKEsYRTtg0hw
p3246
aVOW_Jqfs5IxPpt9QiSwk4hQ
p3247
aVzxSfGIhK3hH3vVz_pS5eaA
p3248
aVLo2L09-TflsY51oR6ndfRg
p3249
aVWmEsbfEJn5WZ0D8dViYT8w
p3250
aVcYkquFFwWT4mQkQcq1MNxg
p3251
ag3103
aVou0vKXhcA6SlOUS4Io3LpQ
p3252
ag64
aVTKDgFp9C7kf_pSHrQHZW_Q
p3253
ag2604
aV69pDmF3LElzNHk6xu-2R0Q
p3254
aVuvj_tGQrGDSVXjNU4pHjCA
p3255
ag3180
aV2nCVuk84L4UMgTQgC2FYew
p3256
aV92727MDUGRemJ4hvN-hG1g
p3257
aV_--ScmaNumIoT2gQanACvg
p3258
aVAqyDXaob6pF7zE2s9nFR2w
p3259
aV5QtYMPUpaHz1H070KBjufg
p3260
aVdRS7eILG93kV_S_PwI6Bgw
p3261
aVepCMMxU8H2sx2r-q8oiFDQ
p3262
aVeD6WXt6kuNrKmunjCdjI-w
p3263
aVCZQ7dvsZiDDEj8mYR42OZg
p3264
ag69
aVkkgAgHRZ4T7dEJDlNy2CYg
p3265
aVTqL0ytKAucWdW2mR7EbayA
p3266
aVqJQM0LCmfF3g_UkeYuLOkg
p3267
ag71
aVlUayjS5CByAxKdgVEv-gjw
p3268
aVmbPyoVGKB99RHaycV_mPwQ
p3269
aVTHPDeKwowt8XZuUcIgtzjQ
p3270
aVRTmIbq33chUSa-etGiF8Lg
p3271
aVhCnQgU5GyG3yWGiwLMHCzA
p3272
ag73
aVrblZR9xtCUgwjE19AU2y8w
p3273
aVdVQTURtUfe5F7aL7hA5f6A
p3274
ag1003
ag2606
aVKK-6rXbIo9B4-b_P5WO5Qg
p3275
aVL9S4WSPE3r1Bg9KgIlTqpA
p3276
ag2198
aV-dp3FqtaouxMG4ABGxGOQQ
p3277
ag2200
ag2201
aV146mAI3-FwN1jCYSKDabnQ
p3278
ag1940
ag1633
aV4LMuN6DNU80UbbIZtn9Q6A
p3279
aV_jg2zJPu7iNI0Ct0XNN3YQ
p3280
aVCq0RSod_3ADfYMSY8QelGw
p3281
aV0ZIaDoyJNEMQHyjOoI1OYQ
p3282
aVcA1dMq-Ewrwo4QUR8_O8lg
p3283
aVi6s35jqh3FTYL6jNfoPaBw
p3284
ag2668
aVeHPrtfhvp56CNp2Oc-UsWA
p3285
aVRMSSpyOX7rEAjUoKI4Svqg
p3286
aV-t6JanEk_V6VzctlTyr6eA
p3287
ag2609
aV6cuDFtWBQQxQaooKQ1CtzA
p3288
aV7hgygLzjMf3YQE6oL1E3Aw
p3289
aVDhyRD0x7S-jav9DZN5ZusA
p3290
aVB4iO8_F6rRe4i9efdfXstQ
p3291
aVPM9gJDZPVFMUOwuF0IBjnQ
p3292
aV3i2PRc2f3f24zktxnoI49w
p3293
aV778QRHfyHcW7PkEK2OxdrQ
p3294
aVh1fOnj8ofEmKM7U9JdCcGw
p3295
aV2bw-jWCirbgcUQovqzlf3Q
p3296
aVdETpJUa-Dz4DsavSH7a7Gg
p3297
aVbUOQz09aRLhDVV5Lg35o6w
p3298
aVCdf50a8hswxqOa-5vAoEsg
p3299
aV_xFNZTcKCcSvSfmpaPpefg
p3300
aVK3EBuyhTBTAhR2-ImlrtJg
p3301
aVxgH1Tld23uhYa9b3rWWCtQ
p3302
aV0gE8y94ytFFdFDDNon-K0g
p3303
aV9hjuKkPO0LryqAq1xSfpuA
p3304
aVRWD95WS_ViX5PE7idDICBQ
p3305
aVv-xdaWXEuLKmf8_6d3KOmw
p3306
ag1562
aVrwuMWGqt7L5l5lDsOYv1dw
p3307
aVQfpwAp53h_DIfzph0IMIbQ
p3308
ag85
ag781
ag2581
ag29
aVjHinWr16SfD72bBmHr6V8w
p3309
aV_eDNXSw7pGbI6VkgsePuqA
p3310
aVPyTHy9VPOhBCiGLsi-PA2Q
p3311
ag2611
aVXjHwaC53U_xSyAL5-APIVw
p3312
aVqtyNbCXut-RQnnEQNJ9UzA
p3313
aVoVj7rkHuY9nJNWcqLFFxdA
p3314
ag1124
aVYhRHAvaVOQy6hjLWxkrp7g
p3315
aVj6UyrSE8LlMgCpQ7EdTziA
p3316
aVdHgwhkMVKezTII0Hkz8TAg
p3317
aVmAKL2FYbfsQgR0g_MhqnsQ
p3318
aVKYuvV5AsoaSwa68_7ktAPw
p3319
ag1758
ag2221
asVLatin American
p3320
(lp3321
VcRXQBgMaOvVennr6QkILhQ
p3322
aVIM9SyBL-wLEVMJcErjIsYw
p3323
ag1575
ag2959
aVD3Sw_VHsaQGYdQjsZDv-Nw
p3324
aVSvuJs-3p4H3FZaoF3K3y3g
p3325
ag3
ag2073
ag4
aVKi2-LougDEv34G5EY1sz4g
p3326
aVxihWs_RmaKUkJgdXwFxtAg
p3327
aVIOvcUedRpxtexapMeIpqZg
p3328
ag738
aVAwjIbxKZl3UDexkjyN5ZsA
p3329
ag2175
ag5
aVe9shtyZ7-9GYcbPIVV--XQ
p3330
aVasydRiVEAsv5u2X8BUG1kw
p3331
aV5_BDR5U0EMCY1eEQkHJbzw
p3332
aVe2PffEXtf9sjbfeIja9rqg
p3333
aVDGPkpfu9hm-ETpU6jL-ujQ
p3334
ag338
ag2728
ag6
aVJs94PF7boJM3IcC0aUIpVg
p3335
aV8kKuUdYSbTVvzraYSGVxZg
p3336
aVl6ZrDTwUHZebCG3C9Va3Dw
p3337
aV2VpseW_MAPGr1d-0a7yhoA
p3338
aVhwskdWxDdn5fNGMkVc5Crw
p3339
aVXFLlf453l-wBLMDMKuvOaA
p3340
aV22I1EPXohNxzz0GOeBPU4A
p3341
aVldjkVkY5GO9-XWN9-8mmWw
p3342
aVvq6sVhb8b7EOxUbNTCnfOQ
p3343
aV1jq25YkwM8LXbJaJ0EUMkg
p3344
ag129
aVn7kjRf3hMYDhCqxG6iC4Cg
p3345
ag1980
aVptDQQbq0NAuz2mXCp1-zww
p3346
ag2294
aVE_EDhIwao6IzULKTwVaADA
p3347
aVxhF-WUufY0RF9d1epr-naA
p3348
ag7
ag1755
ag104
ag1713
aVqF-FCJw2zV03Ujlu1vvOTg
p3349
ag1115
aV8qbQ_Hl-GdBFjYA-ccO4Ww
p3350
aVmmvVocwFHyzNbCtYd1EH4w
p3351
ag2146
aV8Dqov5PD8wAXm_vzME32tQ
p3352
asVBrazilian
p3353
(lp3354
g1376
aVixtKBu8aN-h9YbcV2nA4aw
p3355
ag2169
aV2JA3FHI4khZKMvQ6cyphnw
p3356
ag956
ag1704
asVCaribbean
p3357
(lp3358
VqF4ARexOlkLSgYBogjzy-Q
p3359
ag2164
aVs-1A_UTgaunqgCq34m9pXQ
p3360
aVBQcgpQxUM39PMO_YDl_CqA
p3361
ag3326
ag908
ag740
ag117
aVgmZGeYqlPR6dBwdBZ0K4Bg
p3362
ag1622
aVvgpZuIWKooHxmXVnIIVzHg
p3363
ag1936
ag3343
aVv7CpSe0yu-ki5a8CPPDgWg
p3364
aVFV130V7ArLHiNRtkCPbEMw
p3365
ag2717
aVoaptuaCCTwk3MP-Db5zReg
p3366
aVdi5ihAL9VWoctHelY8kLTQ
p3367
aVrBiV0sqCR-Rcuohzv_R8uA
p3368
ag3345
aVFnYYtdBsmLk8rQls_y11Iw
p3369
aVVIFNAZalU-cdggqmRSKKzg
p3370
aV-JuT_VuVL0OfoY3ccYGy4w
p3371
aVfMa7IFApC3N0SyxfUcghzw
p3372
aVrJ2bVnjja6U8nQCvWI-5yQ
p3373
aVHbkqha6KJw3tDQoJkIpwNA
p3374
aVul5widkgrKM8szxQW1ZcjA
p3375
aVqXwHeoXwW_0_scHU8-I_dg
p3376
aVn4A61MWiTz6ZpiUBVQLcjA
p3377
asVKorean
p3378
(lp3379
VgCaIfAJ93W6fvmKuasF6Xw
p3380
aV7oC0qcOg-XSt4Xo1_u-9XA
p3381
aVFZ3M3K7yIvIj770TE4JpKw
p3382
aVKI2rgxOURuqU_i8Nc7DlTQ
p3383
ag2332
aVv2oxMmRA3SEr9l4aQvmEMw
p3384
aVccOfZIZOwJM6o3t-Jbw-jA
p3385
ag3082
ag2337
aVeAtgP6XcUjRVK8dh8foZdQ
p3386
ag2754
aVQ9LaqaZE-AYp8u7nNEGWIA
p3387
aVXJfCTnV3W9SUkTh_3ddxkQ
p3388
aVDgHEzcSBotbfxW-IJPAMuQ
p3389
aV3SieONzS6FjlS8OvmvlkaQ
p3390
aVO2sRJ5pYzCBjqOJrbhvfAQ
p3391
aV4D7IdtyRjH8qxcsHaz1-GA
p3392
ag2763
aV22yTwTUyMBY3SFu_Hj4NOQ
p3393
aV6z325jAQeDbHMWNYWblslg
p3394
aVpEDMFC5awvgq5bOZpcsI5Q
p3395
aVEAYBdA_ZWXcHmH9rYtIdHg
p3396
aVrprCkl8bCe_rA9Yj92hHOQ
p3397
aVgGkj-IQ1-7t4vXi5aMUycw
p3398
aV9N684D-RFrQC0V4K0XvdxQ
p3399
aVJLgtzc1QnBaWqpUHQDsR6g
p3400
ag2495
aVh-pdNVQY1ekHoVtgJCxIkw
p3401
aVGW50OeHwxznKkj857lbOoQ
p3402
ag2808
aVT4648Rp4gRKqKHVzQgQ3fA
p3403
aVc3ePjP1yvNH_RUHSEF0WdQ
p3404
ag3099
aVwFYBsvwAsPQwimsMDZmQsQ
p3405
aVGWS5s8HSm1zjqMLJD7wQLg
p3406
ag928
ag2279
aVPkSoDMwb3y3-lRsqaKqSGw
p3407
ag2181
aVnYy4Ls_AaSmKC5T9Urr3vQ
p3408
ag2396
aVITgGe5ipum4atUXq7n293w
p3409
aVnWu8OljDYmLfbLQqcfW9Sw
p3410
aVpIavMZijKmNq2RMu7Xqvsw
p3411
aVI_08L_M6ojnbSz9HsX9aIg
p3412
ag355
ag961
ag2190
aVpN82QW8yU0kvHqo8Kya-cg
p3413
ag2401
ag2191
aVfKGwQ-slqLmAZu2T6yVQJA
p3414
aV5tA21JTO3xKfAI_NYCIJqg
p3415
aVZMcbVIEXsLO7j1Q1GXKPSw
p3416
aVbdteJqgoj0OaALhj9RFtmw
p3417
aVECKXHrl2GqNKRMG9jp4trg
p3418
ag383
aVwe3YxbueOBb0f-m7ekYk2A
p3419
ag2412
aV87LNZTmU2KXPnC-ZyN0mYg
p3420
aVYrVwUbhaMBU0vZqWQd2RQA
p3421
aV6wR6uuMIcqfNnOm4uohPPg
p3422
aVv0cGdCsOi2VbXj2Mg5BxpQ
p3423
aVhtbFMb1cnxr_MPabXP8geA
p3424
aVi8ieIxe7psFM3uD4idovgg
p3425
ag720
ag2202
aV7CAMlSH-UGjb5N75vN_Iww
p3426
ag1784
aViK_3WktnHa_YlbWdA0Axkw
p3427
aV8MhLXZcr49SU8ovh6KzRwg
p3428
aVR_pxDB5mlxFr1ZLkS6cV8g
p3429
ag2432
aVnt02si3s-NbfKENpzbi7HQ
p3430
ag2902
aVi_ihNW9GViqCtGXg1tkYOA
p3431
aVz3wOFveqCg61_l5M_i-ZYg
p3432
aVvazGZqBycQFmnnwRjtzroA
p3433
aV5CSGxhesXkz2XNQB8AP6Kw
p3434
aVoSLo9yW0SYiP6I5SxmGMhA
p3435
aVG_VpU7J9do8ZRCLIblDBZA
p3436
ag2443
aVBLKdoHv3SobsnHIKjO6oOA
p3437
aV3-AcFdxdvov9tL1C_3eT0g
p3438
aVg-B5qeJ0V9mTKrM9Ekr7BA
p3439
ag2446
aV18NlgiRTcSo4NNsM_xs-OA
p3440
ag2453
aVPFzF3dcRKGcziTf4KT0Skw
p3441
aVid5WQI_fo1V24wuf2olAeg
p3442
ag2454
ag2582
aViBRwl7sirmvg22AYnMPONQ
p3443
ag2252
asVPakistani
p3444
(lp3445
g3209
ag3212
ag3213
ag3220
ag3224
ag3226
ag3227
ag3228
ag3230
ag3232
ag2496
ag3239
ag3241
ag3243
ag1738
ag3251
ag3252
ag2604
ag3180
ag3257
ag3262
ag3264
ag3265
ag3270
ag3271
ag3273
ag2606
ag2200
ag711
ag3280
ag3281
ag3282
ag3284
ag3285
ag2609
ag3288
ag3289
ag3292
ag3293
ag3299
ag3304
ag3308
ag85
ag29
ag3309
ag3310
ag3311
ag3312
ag3316
asVBarbeque
p3446
(lp3447
ViT581VVVGgpik06KplZOuQ
p3448
ag2332
aV4ZAy5ZCTWbduzzhtR0egHQ
p3449
ag2248
aV38nA0fIJMCj2EoLpAcPj2Q
p3450
aVhs1bNW1pkKYGoXQ39P2Ffw
p3451
aVIdx8xKpOpz7llQS_5qSBbA
p3452
aVMVq_27LYuq4R5AdXmgBnLQ
p3453
aVNosYl_9KiDWOGT3YmNmwxA
p3454
aVMeSmC_2VCPtmF2sRitdzxQ
p3455
aVJrGSfjRqAtIZjjwC3FFQ4w
p3456
aVsovw8zH8Pa0VctrVSjaILw
p3457
aV-i3pCgQi_Y9NiSSWs6G7bw
p3458
aVLxHcL5bM_4sIi58I-q2hig
p3459
aV-5NXoZeGBdx3Bdk70tuyCw
p3460
aVV5DHGTNGGdyHawRWcaDfoA
p3461
aVlduWuTF67SqWe3HRVcZStw
p3462
ag1400
aVuIhwJtKaUDXUm0_3RY6uRg
p3463
ag1740
ag3140
aVDMjjIwphRzmgZNbfbwbyHw
p3464
aVodf4UIHxEsyEfSsa9vKXDQ
p3465
aVZQH1s3nTDyclGrQ160NrEQ
p3466
ag340
aVUDxCeIKo1RnPNBHpMknJ5g
p3467
aV9MnbQg7kfb_WgxoV0hXKSQ
p3468
ag21
aVKboFvCKH3uzhyXt2WeSufg
p3469
aVgjyFpVijSZC6PUqnu8N7BQ
p3470
aV6Ld6AS4Qa_kVessELWw_tw
p3471
aV-WZd_Vr-_oWAL3R8Z0YplQ
p3472
ag1783
aVUeJjjmceSAJLvMingsA65A
p3473
ag3426
ag1784
aVKsrMCDF689P4bTBrrbTLjA
p3474
aVW2Ykx9-dUYNp1tC_Km4Bbw
p3475
aVDFjhSd1CRQBarXbsyPT4WQ
p3476
aVmQbVH7dUxfLZuvkz8FEBdA
p3477
ag452
aVwreg3p23olFakH5ipm6Dlw
p3478
ag1752
ag1048
ag1973
aVF-CnLwWvidsZqR9pLUrcBw
p3479
aV_vLyjI50m3eafiXnh87i0g
p3480
ag1060
ag3435
aVxVsP0TfKWFjsqzfJDfg01A
p3481
ag628
ag26
aV6GXMHrB8u-3nq87zE1Av0w
p3482
aVQ2bnRzJ8AC-3lWyQY8DZqA
p3483
aV7aLvm9CdfkNf-kdA3xRiLQ
p3484
aV4GYc1Ld8r4rGQJKz_Qp07A
p3485
aVYDOKZjBzxY6cJL1YUoDYSA
p3486
ag1795
aVEDGGR7PzRbtxotnbQcoPiw
p3487
aVr8JPhghp-0vOPgoYltojag
p3488
ag28
aVKOMIvmCfTopTffTzP730pw
p3489
aVqMqTY6MFgPCIPe1FXz6e_w
p3490
ag2243
asVHungarian
p3491
(lp3492
g1679
asVBrasseries
p3493
(lp3494
g33
asVHome & Garden
p3495
(lp3496
g2243
asVSouthern
p3497
(lp3498
VLJuHxobQsa7lW0c1wttY2A
p3499
aVKofmXktylwRz6ziJqW24tg
p3500
ag2048
aV4rWJGwb3rjDoZHA0AECa5A
p3501
ag1827
aVUwyznRkm8F04Dwl7LVwivg
p3502
ag1181
ag1842
aVR5iWLAuA0cpAe-zUPBeVUw
p3503
aVTpUmiPjOrsQUK_eHYg62Lg
p3504
aV75oHCLZthY6qgf_vh_rT2Q
p3505
aVyyfRfQ2YVOCUlIy_KGi4wA
p3506
ag1878
aVDfrvJL-6H5i1nsyL6H6VGg
p3507
aVkGxZXqCzuBgc-gFcfSwtLg
p3508
aVcVIXO9rRiK8qf03YzXLimg
p3509
ag121
aVy9A0DQDz37RPFe1sIKkO7Q
p3510
aVP8fyFwD9P7fdhh96cStoMg
p3511
aVbv9yZMZTLfPe8zIG_sSjIA
p3512
aVo6dcua4_JojM4ljpe3Yyxw
p3513
ag2105
aVQ0t7EEaygJ2hb4uFn79owQ
p3514
aVwBQRhH9fEqME-sPU5sUlaw
p3515
ag2115
ag2117
aVzNqQSYafieEgxB2nZ8yAFQ
p3516
aV5p0dGdOlvUsuTVdHrCZP7A
p3517
aVGH3D02sDvOT4A9JxgL0sxg
p3518
ag3485
ag2011
ag2631
aVM5y0wDvHNMeG856Aw2uhAg
p3519
asVVegan
p3520
(lp3521
g94
ag1834
ag241
aVfrs7gMfgKovZ6PUTs4Pk0w
p3522
aV2u4DSD6F8RyFXp-Crhj8OA
p3523
ag1222
aVWh1skEI83tXwN1uHkvWJ1Q
p3524
ag99
ag100
aV2NLeqV_MBkb2pkxrFnUWVA
p3525
aVjohcyYjak9dA8YLftHOC3w
p3526
ag102
ag3256
aVS4a-MaxMszQjSPSs1JSM2A
p3527
ag103
aV2Ho61yyEnWGrqmCfkEj1mw
p3528
ag2104
aVAMaIutqEKCzGhmN9DcIuIw
p3529
ag3205
aV-Rk11WNVhdTin7oiLV1dVw
p3530
aVgomSgjEesyhMgdN8w2tBOA
p3531
ag1557
ag778
aViMhnd4eY9ZSHIgzHtJhvYQ
p3532
aV7qEDTE4i1HeiHDQH2RJseA
p3533
ag1990
aV5-JSDAzqCw6FdmeThPOCeQ
p3534
ag715
ag87
aVogFn9-iNXcJ4yFiN5ZsPow
p3535
asVPubs
p3536
(lp3537
g785
ag800
ag805
ag806
ag816
ag819
ag821
ag823
ag825
ag841
ag847
ag850
ag853
ag855
ag859
ag863
ag767
ag876
ag877
ag883
ag890
ag894
ag898
ag902
ag905
ag906
ag913
ag921
ag923
ag924
ag926
ag118
ag932
ag317
ag940
ag946
ag953
ag955
ag960
ag967
ag972
ag981
ag982
ag986
ag987
ag992
ag993
ag996
ag999
ag1000
ag1001
ag1007
ag1009
ag1015
ag1018
ag1019
ag1027
ag1032
ag721
ag1036
ag1037
ag1041
ag1044
ag1052
ag1054
ag130
ag1058
ag1059
ag1063
ag1067
ag1075
ag1077
ag1082
ag1096
ag1100
ag1106
ag1126
ag1128
ag629
ag1130
ag782
ag1136
ag1137
asVPersian/Iranian
p3538
(lp3539
VHXni0_SFPT1jAoH-Sm78Jg
p3540
ag733
aVFYDP6_7CNfEvuSUEVLZj3g
p3541
ag3190
ag3191
ag1507
ag1509
aVaaYS5GEVhQLn1kbsR3V6uQ
p3542
asVDiners
p3543
(lp3544
g2041
aVhGbtJYVdJ-EYSgXdGvps6g
p3545
aVxkX9SUlI27BDuliNOcuMbg
p3546
aVUTrqsP-oQrwoIOmBv_Jtzg
p3547
aVfjGpK3l90w_NX3dICkKj4Q
p3548
aVS4GEsM7PLEZO4EBFwnERCQ
p3549
aVjniAYYUXDPxhQlwzGBmjAQ
p3550
ag2049
aVJ2fh7F5wZ9BwjfKbxqQWiw
p3551
aVEqpBJpt5_JzF_MQjIvc6Gw
p3552
aVnqW0bWZresih2sqvOQ1diw
p3553
ag3390
aVVIeqbFdw0gm_hwoL_2NXTg
p3554
aVnuoxt1lk1EDs3nOIZ3GeBw
p3555
aVgAoqMSnWIeXMT1WvP_EfBg
p3556
ag2064
ag2065
ag2066
ag2970
ag2068
ag2972
aVo4G9cfQQgktHYvYafIpLwg
p3557
aVU7UVERrPVvLJ8HN6TI92DQ
p3558
ag2076
aV2Vh5FAv-jFrHfyQvt4i7TA
p3559
aV3vTFn7A5DsnwGzYlrnN-sw
p3560
ag1604
aVnGgdoc8XIYYb055OIu4SgQ
p3561
aV4NNPmINhJ5D8S40Uj0vLgg
p3562
aV_3zpIUnDykKUAhcMxB2UgQ
p3563
aVFboGZXojey3KhAa6hebVUw
p3564
ag2087
aVz55ycyxaqyb_r8xd74Mdmg
p3565
ag18
aVboj58MzwMesNagJtQTLhlA
p3566
aVUU3lOnRlN1IGEyoE1RxLyg
p3567
ag2280
ag325
aVbSs6PgwqIa7QeimK7gokOQ
p3568
ag2095
ag2097
ag1472
aVepqJjZou4WhvNHm3YI0yaw
p3569
aVWQkrz00jNyQsaJadxL0h7Q
p3570
ag2101
ag2102
ag2103
aV4BP_bNejmi19kAv96b8PFw
p3571
aV-LfTBo0oa_uD454ScEW2XA
p3572
aV1-hL01PBz3c1w-hRbUXJAw
p3573
aVE39pbLivZFnQQrUR7nLOkg
p3574
aVeYVibUrZuFXN4l3adeAAdg
p3575
ag2106
aVpfzgsjSzpdMj-pHVdrToDA
p3576
ag3188
aVyrJGTKY64GlRfOfVcCPXYw
p3577
ag2729
aV_hmURvTcQ9qEjB_BjOR5mA
p3578
aVzcsnkOzf4V80GoiyP2y28w
p3579
ag439
aV0myzfKLg9mjBHev9F0s09w
p3580
aV0PVxodALQu-soL5J8bjerQ
p3581
ag2288
aVOjczqLl-q-NQ2oyvWUMagw
p3582
ag2120
ag3036
aVwsuzuLD3KV7L8oMinLCI0A
p3583
ag2122
aV_e9wgMUWkkx_vrFt8Ym6SA
p3584
ag1981
ag2699
ag1084
aVRhGnmMMEaNm3JwKKDUjVZg
p3585
ag2134
ag2135
aVVf0-szX1DxTVYhpnJCwr9w
p3586
ag2136
ag3440
aVZeb06JwkXIvweAkGOsWDqg
p3587
aV6nOxwnuN0ZwLX3h3JYSJnA
p3588
aVEQCyF9ksaC6Bp88TFI03iQ
p3589
aVDOI4vjKHLYKz9XMsvp24Bg
p3590
ag2143
ag1112
aVurcknOUG1FqK0QaNxVVQSA
p3591
aVtHZ0mfl9MtrvN1i9r1srUA
p3592
ag1114
ag560
aVJclXOdPHF1Kkglcon_B31w
p3593
aVtyZsAMiHjp_KJia-9c5Jtw
p3594
aVrC3AvYl2N1lUR9l8vVNvTA
p3595
aVdu0tHy1a1XlgLHcOBOxTgg
p3596
aVczAJCWuK1nCjjfbPYATg5Q
p3597
ag1720
asVSports Bars
p3598
(lp3599
g788
ag791
ag807
ag812
ag815
ag818
ag827
ag839
ag850
ag865
ag871
ag882
ag887
ag894
ag271
ag903
ag934
ag935
ag939
ag947
ag952
ag965
ag966
ag368
ag985
ag998
ag999
ag1005
ag1016
ag1024
ag1036
ag452
ag1040
ag1048
ag1051
ag1057
ag1060
ag1079
ag1085
ag1092
ag1097
ag1121
ag1125
ag1133
asVRussian
p3600
(lp3601
g1600
ag1679
ag755
asVGastropubs
p3602
(lp3603
g2953
aVcmTtaP3LeApvz61W94Lvhg
p3604
ag791
aV3ayb8-X8BvPyFh_E6FLyyw
p3605
ag114
ag863
ag1837
aVe_ZvOsmh4oXUL7HDXnbQoQ
p3606
ag876
ag1851
aV7uwym0MRceSa5xY9orUkcQ
p3607
ag920
ag1929
ag1950
aV-93uBoiVyQ2ZPABERT621w
p3608
aVq80_Xo7U2bAoqjJy3iBSHQ
p3609
ag1136
asVAfghan
p3610
(lp3611
g3228
ag1453
ag3241
ag1997
asVCooking Schools
p3612
(lp3613
g1142
asVSeafood Markets
p3614
(lp3615
g3381
aVzDutnd9reYnTXCJFSNgEgQ
p3616
aVzGy1gswa52Df4FT4bDzlZg
p3617
aVpS2cKK9NxE9R371n_2SONg
p3618
ag756
asVBakeries
p3619
(lp3620
g1569
ag2043
ag1571
ag2639
ag154
ag2750
ag165
ag93
ag171
ag2050
aVsC_TnCKN1KfgtTGT0Nil-g
p3621
ag1820
ag179
ag2053
ag1581
ag214
ag1550
ag217
aVidylSOmjsL9-v9Q970elxQ
p3622
ag1590
ag1199
ag3360
ag2649
ag255
ag671
ag1854
ag2078
aVHQ28GzcNzeAkjB1hTS9rDw
p3623
ag287
ag676
ag3523
aVohOR82PkFEDJDeA5WwqmwQ
p3624
aVIMU524Ze7yHf8gc7R-SYUA
p3625
ag1552
ag2282
ag2283
ag1553
ag101
ag339
ag2659
ag2285
aVgZtJyb2oEpwo1rnovDVPfA
p3626
ag399
ag2107
ag404
ag407
ag1629
ag419
ag420
ag1635
ag442
ag1304
ag1557
ag690
ag3582
ag1965
aVURfhBYViK36GSfSy4536Cw
p3627
ag1642
ag2672
ag488
ag3370
ag492
aVb5RZp-VsG0R7_4O3DjviEA
p3628
ag1561
ag2295
ag3372
ag3152
ag696
ag756
ag697
aVI5dFvzPt57bb9T7z0Mp-jw
p3629
ag757
ag615
ag1656
ag2024
ag698
ag2679
aVCLnsQyp0ndsCDFoKgrQs9g
p3630
ag3542
asVVegetarian
p3631
(lp3632
VT1ugJiVm210G_4QvmQCz1g
p3633
ag2754
aVuLWP9FVdklJXP37BsT6YIA
p3634
ag765
aVNvdS8_9gyk1bdbOl8F5OOQ
p3635
aVSwm_L7Ang0UkSE0i9FdG0Q
p3636
ag3224
ag204
aVy9-GnaNOrPLTPnYQZjIdMA
p3637
ag1834
ag3164
ag1840
aVLeP4UZpXfeb83gMmRHUWBQ
p3638
ag2648
ag241
aVmtcQaABZsZ3VQaGnpwPIeQ
p3639
ag3094
ag3522
ag2496
ag1450
ag1861
ag2652
ag2275
ag2507
ag2816
ag3524
ag2277
ag2178
ag99
ag3250
ag3525
ag64
aV17PRKve78GgzlHYdEbK7TQ
p3640
ag1905
ag102
ag353
ag1471
ag3527
ag3259
ag2538
aV54NNpmmHGyas53lS-hqzJQ
p3641
aVxbbmqXO_YSywLpYjR4SAAg
p3642
ag3109
ag3528
ag3529
aV-6N_13KRzKQvHJeaKashcQ
p3643
aVc67b6g737VnEAj80Aaex3Q
p3644
ag1750
ag3531
ag778
ag2290
ag1988
ag1990
ag2569
aVYXMIASWpa3v9baSd4iqFGw
p3645
ag79
ag1996
ag3534
aVBbaTXv-znO8s9WiNtQQ4aQ
p3646
ag2137
ag715
ag757
ag2934
ag2631
ag3375
aVkKCwp86xU9XKRnAALQDhrw
p3647
asVBreweries
p3648
(lp3649
g819
ag3454
ag905
ag1864
aVXEvLTGnZ_ZLI3CiPlzM2NA
p3650
ag1875
aVN7Crq3DytuvUQ2OyX2YRmQ
p3651
ag1896
ag946
ag971
aVh6YJ8ULFYSjVPbe5V9eFuw
p3652
aVBmvu1grPzxECp7dxm8zerA
p3653
ag1944
aV30GlLGmcMko9QFo9Qlhlmw
p3654
ag1955
aV56USR7ZY3Gsm4lR42yMQSg
p3655
ag1032
aVrnu8-Nv0jZo5IIikJf0LUg
p3656
ag1962
ag1967
ag1067
asVMalaysian
p3657
(lp3658
g2491
ag2795
ag2801
aVnF5TXLMmC6IJgQxE9CEZPw
p3659
asVKosher
p3660
(lp3661
VM9htuhrsaFepzIHxtmqbWA
p3662
ag1490
ag2610
asVModern European
p3663
(lp3664
VrP90TP7gOMzBFTrKWEEsOw
p3665
ag2180
aVpb27hCAzqAOfw6KSbYj6VQ
p3666
ag1350
asVPhotography Stores & Services
p3667
(lp3668
g756
asVPoutineries
p3669
(lp3670
g623
asVIrish
p3671
(lp3672
g828
aVVHsNB3pdGVcRgs6C3jt6Zg
p3673
ag877
ag883
ag898
ag118
ag932
ag960
ag982
ag986
aVzz687K2lR21YNwsv455Dqw
p3674
ag996
ag721
ag1037
ag1041
ag1058
ag1063
ag1082
ag1099
aVFa74LEFqNYjIZvT2kVyTlw
p3675
asVCandy Stores
p3676
(lp3677
g164
asVGolf
p3678
(lp3679
g1544
asVFruits & Veggies
p3680
(lp3681
g2709
ag749
ag758
asVGerman
p3682
(lp3683
g817
ag832
ag2059
ag1677
ag870
ag1669
aVOrAvxqci9xhMGZy5KbRGNQ
p3684
ag1000
ag1043
aVBdQ3SgS5CBt2KOYdncAbOQ
p3685
aVbP0Z1ELhen7IK3JahUAG5w
p3686
asVCinema
p3687
(lp3688
g115
ag122
ag133
asVTaiwanese
p3689
(lp3690
g2794
ag2727
ag2274
aVoJimNsxQ1eFqXec1vBUGZA
p3691
aVATnRWnNk5iwwIbwS8VmuKg
p3692
aVGXezM70T5c9-rPnOFZ4TmA
p3693
ag2929
ag2299
aVdJb67-qXGCAAFB7IQ9M-aQ
p3694
asVPeruvian
p3695
(lp3696
g2982
ag3337
aVTOJo7XyJQRVdEIk7a-mAnA
p3697
aVD-eKRUJMr-5xAyZbeDDNuw
p3698
aV3r2-QTeRWn0_Er3624El7g
p3699
aV9xHZIB_mqekhffAcJBbaBA
p3700
asVMongolian
p3701
(lp3702
VxbEoDp0TttnIl7BiNJWVUQ
p3703
aVlJVN0LZkpKK4PkU3SvHd1Q
p3704
aVzKeSSmf_-7C07RNsEOkmgg
p3705
aVEEVcAmmM5ts0dgzqGAZp6w
p3706
aVLI2SG1npU_WY85f8iPyCuw
p3707
aVkTBT-UAzRIuwsvJ1OLJgKg
p3708
aVbeQTssrbPuz2Rr_OjDMyfQ
p3709
ag3108
ag1913
ag3473
asVWine Bars
p3710
(lp3711
g786
ag792
ag808
ag847
ag218
ag901
ag916
ag922
ag927
ag941
ag950
ag979
ag983
ag997
ag1023
ag1035
ag1042
ag1070
ag1076
ag1081
ag1098
ag38
ag1119
ag1132
asVBasque
p3712
(lp3713
g2260
ag2310
ag2088
ag2314
ag2318
asVArgentine
p3714
(lp3715
g1388
ag1247
asVHotels
p3716
(lp3717
g1723
ag638
ag1732
ag1733
ag1668
ag1734
ag1735
ag1737
ag1742
ag1745
ag1751
ag1756
asVVietnamese
p3718
(lp3719
VdPIsxsqE22IZ-R43NalT0g
p3720
ag2739
aVfcdjnsgO8Z5LthXUx3y-lA
p3721
ag2340
aVYuJmfmz5Bryp-zP6NXCXlg
p3722
ag182
ag2481
aV7TwfOPLfBBZEHAoYrPaZEA
p3723
aV-yYgIftfSN5MM5RBLzC0pA
p3724
aVV7z-P1aqxkHTcKAsWA603A
p3725
aVmiMx3VNOW8qPJC5wEGaIOw
p3726
aVP0FaNB6xWUkumB1Pe3I8Ig
p3727
aV4HBKsjdGHutH3TflSa4QhA
p3728
aVz4YO4rycvYrZEd3VYtzVvw
p3729
ag230
aVahr0chRA-xpmq2xV_gnb3w
p3730
aVa4IpACmsrzbVTYJcKgzRdA
p3731
aV-9GunsagWEkoxOpxIX2feQ
p3732
aV7i8EqozH3Dm3OnZdyf39jQ
p3733
ag3638
aVIfGri7KaNdSpgFulFl10Rg
p3734
ag2495
ag258
ag2801
ag2803
aVyY6Cxrh6yXQBavP12tjYhg
p3735
aVFqcuvQF-OvKKdJ0RLdos8A
p3736
aVFWYba7-a8yCX7J2QqG720w
p3737
ag293
aVJUC2w_byPiyEbXrufEik-w
p3738
aVG6eVUNDvfCiFy8ICavGScQ
p3739
ag3100
aVsRO-U8Kxd1tXJlENTqv89A
p3740
ag2513
ag2517
ag2090
ag954
aVvEJy_uS9_3kB_kxTfDrgfg
p3741
ag3412
ag2529
ag347
aVlWG0hyFKIgZISbZkEfMVsQ
p3742
ag2860
aVyyfoTWbnZkthZEaBePXd9w
p3743
aVAUz4akyLb32J7SDa_nKgMQ
p3744
aVlvSBv-XzfzFj3oT2l6q4Jw
p3745
aVhuHxwjbkyEf1nTam-o2BOQ
p3746
ag650
ag2560
aV_AoDX3SxUb44yIDTBjtzzA
p3747
aVyoPhGOboGuj9svBwWp3gOA
p3748
aVsmPT2UyFLJO9UBHvigKWAg
p3749
aV1paWSxJdcKTHfMG7yzv9oQ
p3750
ag2572
aVZmYIPv4XQQ2bT4dgl6ezzA
p3751
aVwS8QRDombD6qsUERq1-etA
p3752
aVmG9twA2NHg210sZ9MLRd7A
p3753
aVZ-5DrkF98mHw2-RWtAshlg
p3754
ag544
ag547
aVAfJCoI9vYrj1lnhlNhZdfw
p3755
aVIqPHG_iZX02cpDLqraWN5A
p3756
asVDonuts
p3757
(lp3758
VLLZBXU2OKVKte-MZlV5VOA
p3759
ag2055
aVFM-rxNJP7eSXZGwizEd-Dg
p3760
asVBagels
p3761
(lp3762
g188
ag189
ag214
ag217
ag232
ag1595
ag1599
ag425
ag1642
ag490
aVXehDV9ZrKDGGcdaZ7rs-aQ
p3763
aV9Adrvr8ycurboVNl7KcKyg
p3764
ag587
asVSocial Clubs
p3765
(lp3766
g131
asVCheese Shops
p3767
(lp3768
g265
asVFast Food
p3769
(lp3770
VUJw-KnIdnzwbvxzNvIUhgw
p3771
aVn1yu-g8KobLRt81pNNskhA
p3772
ag3759
aVdYCZYVgTg6FqWnblFi0nYA
p3773
aVqT2GTTwIdqLMLNq7p-oL7g
p3774
aVPzmZp23d8ia2XXQfQIzmYQ
p3775
aVrL3yi1KUhyyMxVejpPHU3g
p3776
ag162
aVgsxBic3oXStmNtg10h6StA
p3777
ag704
ag2052
aV71py1RG3ev8o6Nk2Dwe1Sg
p3778
aVpEPGTcjFuu5mDbYBYevcKA
p3779
aVJtDX5AIQEByxVdzO3lClDg
p3780
aVHbwITUWxAsYIaebhM8gKIg
p3781
aV8Z9-Au99vZvLVBPa0DqoHw
p3782
ag192
ag194
ag2767
ag2965
aVDs-yqLSYUjUpn1HyqBjEnQ
p3783
aVCXTqxjotiJOhoSoIEtBAxw
p3784
ag2770
aVwE-gNIBhkmxDv5f50rRX7Q
p3785
ag2966
ag1729
ag2236
aVKtFGTBDLlk1sP-DIFPxDVQ
p3786
aVGLNK91GFAdnQxtKdTBEifA
p3787
aVwoIUgTj34FOmCZ6BXiT05g
p3788
aVAD3WOgeqQq6mN4be980edQ
p3789
aV6ro6GdSUnNmM929dTHgVKg
p3790
ag2971
aVopPQiewFDpZZzmECcNMurw
p3791
ag3166
ag2791
ag244
aV1f0gkQKJdt7CKD5TlVpAVA
p3792
ag2976
ag2977
aVbFeUWWtFB_7b_0ODOduhMw
p3793
ag251
ag2978
aVurXE9YSeQpOv16kjDu6CHg
p3794
aVFs7lKMANuifCyDjF99opRA
p3795
aVsEfWYORvlOCJptFIAGg2eQ
p3796
ag2496
ag2981
aVOdiP4nKmrIuFaSqt4kcXSg
p3797
aVTsxBE0dpdbgRtjsZoYPPNw
p3798
ag2987
aVTH-M-WZR7vTIR_uHqgX4Uw
p3799
ag2993
ag1874
ag2995
aVhOszOwUA9LL8VZ6_tEJXeQ
p3800
aVHiKFAocRpRHvZ-Wpg1ZjJg
p3801
ag2996
aVKR-Pb1-fxE9TrZijQWH0Qg
p3802
ag301
ag1698
ag305
ag2999
ag1885
aVwO3UCDQg_a2QWM1e-VeOYA
p3803
aV5z_9_D5a-tgkmPUps7Utow
p3804
ag3001
ag1464
ag623
ag1777
aVdCPyV8XCEyE7pyUgzOCDKA
p3805
aV_bSPl_lu2S0ySfkwfEf97g
p3806
aVt_ZqEnTW_f03UMerM7U7aw
p3807
aVtx_0mIXEr4TPucSYyfA2eg
p3808
ag2183
aVIvUnxOP0cv3NzNBE0f3jng
p3809
ag3640
ag3179
aVYzTLKQV3x-jeX7Lvns-_Cg
p3810
aVG3sb77JdGoh6bzmtipfeKw
p3811
ag3006
ag334
ag2838
aVXOTnYzcQlYmEnpe4l-SVkg
p3812
aVAoQiryUPxSdCxZcm1tYSkA
p3813
ag3007
ag2092
aVQe7isdP0KbTVYG7ZlL7bGQ
p3814
ag2185
aVnzJ-_uC1-N8xN_FaFkZhuQ
p3815
ag3010
ag3012
aV5xv0xjcRUzP-Zb6CKBOceQ
p3816
aVcHiFVbrHG7hjPdOb1IGvTA
p3817
ag2849
aVXWD1X5COj9HpY4jNb2q9-w
p3818
ag3512
aVnOQWAMgyvuIL66t-fg3LIQ
p3819
ag2251
ag376
ag1920
ag378
ag3016
ag3017
aVDRzEel75V27XwwdoMYzviA
p3820
ag1700
aVsvEMTlZl0vdLqYlAVKa4Zg
p3821
ag3513
ag393
aVbB5C_iNeAggSFuCvCzZnzg
p3822
aVcjI0TsLARhX6T2TfOxcT3w
p3823
aV65ltOonS7uaG12RRdn-W3Q
p3824
aVx6I2OL6EsFhuphbPni2D2A
p3825
aVo8AJkkv6bLfeQLGAdGmQCw
p3826
aVDNlbs6gLT64kxEEXG_rVYg
p3827
ag402
ag403
ag3020
aVmTKpOgtPbc5gN3_1jYwNVQ
p3828
aVk8uOWXuHiiy7L4UMI_Nc7Q
p3829
aV3Hzto8cMq0QfOEFcD1NHDA
p3830
aVAB7l1ZcDsrEKjlO68oaqKQ
p3831
ag1488
ag3643
aV_mP885JDFtZiQI-zxnvScQ
p3832
aVEZOoB2D8uQHV_gJoGCMTxQ
p3833
aVTEcJMBZAyrfZ0gV0pzxdQg
p3834
aVwHl_QyKjm8zHUoBvXjx9Dg
p3835
ag3026
ag1785
ag433
aVnF8R1_vtuVntHLpUN3UoVg
p3836
aVsPhPI3B6tvcJIULhICr-Pg
p3837
aVL9Ra3NSzw9IBKKmDj8hNow
p3838
ag1301
aVTZOgC_m95hO-TVM-nJ76EQ
p3839
aV2ntYHAxnufs6ilwM7qvTaA
p3840
aVyCz02okiTX1yHTOBODaJAA
p3841
ag3287
ag3193
ag1789
aVn1crH2Cg8Pb7UQ-bt0jLjQ
p3842
ag3034
ag3035
aVJCPykGY64Ok0MXo1T_35Cw
p3843
ag458
ag3038
aVBgyCo15G_229xfSmNtPtXg
p3844
aVSO9XN2c-UKwzTQsQwtP8GQ
p3845
ag3196
aVwkQBZsAvrlzheRtunKXfEQ
p3846
ag3039
aVRvbN7Zv_W7zHjDh5F0B8Ag
p3847
ag2209
aVsDuEFECgOacgscYFgGo2pA
p3848
aVYeBfER8hNQD9kvlAqzH5LA
p3849
aVLIK50IYMduRgKRfj58ClSA
p3850
aVnBJ_uUf3Hk3Xxfozvur3dA
p3851
aVOQs2oyp7ATiCtvBh8RfkDw
p3852
aVxCjZtBbVEXYM_3uCkMO-PA
p3853
ag3046
ag133
ag497
aV4QsG9u46h2F-Hx0c4mpKFA
p3854
ag501
ag3050
aVhzXmSzmBqgvEkivy7-Mc2Q
p3855
aVKR4byEwMJ2iC3hlHiX6gVQ
p3856
ag3052
aVdyz6Y8vuxKF1vxVucB9hVA
p3857
ag3054
aVSYoul5LhUTHfMBJUUmjaAg
p3858
ag3685
ag522
ag1334
ag3121
ag3059
aVoXuh5zUc7CxHfcDdEoVrZw
p3859
aVwKfyiP-eNWLSXF6CjWbI_A
p3860
ag2921
aVJ-pY8tSvUc2ekYnnUR-uQQ
p3861
ag1710
aVwA-KJhhSH6pClZucT-CMTQ
p3862
aVSfImi4MMyKjwOAxw1BbatQ
p3863
aVpdoNdba03NXOdhaDIFkKcg
p3864
ag1711
ag543
aVwM7GmdP3qwoWVXUWeX1N5A
p3865
ag1714
ag1563
ag3067
ag551
aVEHJGGhZwHk2q-OQgBqMX0g
p3866
aV6LPu-7ZmGFuYbiW7xDvXDQ
p3867
ag564
aVGeh5WtRKHcX8OymVr9dHMw
p3868
aV284kIQVaoHew0YeiywIHhg
p3869
aVdATozC-bYah9uh8tHIDvaw
p3870
aVyTSxG7WvaqeWx5bYMbDuAA
p3871
aVbEErV6CxZ-E4ysLV1Gvw2Q
p3872
ag2301
aVtzRNk1hqooBV3i-Q_yKP7g
p3873
ag3073
ag588
ag591
asVBooks, Mags, Music and Video
p3874
(lp3875
g762
ag128
asVPizza
p3876
(lp3877
VA_Fm4v2-gQuGBBI-GBx4Uw
p3878
ag788
ag1147
aVdpqv-Gy6RLXXGnNrGZjOYw
p3879
aVyuMPHKwfxWeaDjjNzSGESA
p3880
ag2042
aVMg1CS5aRT_eV4qaGpEvnIQ
p3881
aV8yKr1IvQPnLLK6iRpd0Few
p3882
aVlW9v4mHbSRVwlHSTk9hSCg
p3883
ag1150
ag91
ag794
aVGsoYOQQ_7L9amG78lucepQ
p3884
aV-0iqnv7MjKrgh7Q7bYRlUQ
p3885
aVd1PfS_bozULtBY4PjF3D-w
p3886
ag730
aVWvGFYEx2TsOXI4he9eau3w
p3887
aVGPBqqLKwuIePeDf2tlwTRQ
p3888
aV2LVuwl-eH-8PYikyFmqcTQ
p3889
aVI_OPhKQDHUXHXDtFOtJCrg
p3890
aVKVAacSMfpR9Me-2bJPQNVw
p3891
aVxsciMH9Wvl6o3sUdCsz8gw
p3892
aVRN2Aw4JLtLL7_5sIW-pGUw
p3893
ag1157
ag1158
aVgCa-GP9620vqwmP4E25xUw
p3894
aV39C414-SwTpyes-9lbqkLg
p3895
ag3776
ag815
aV9tACFKALGkwU1dNWcPap1w
p3896
aVtMA2Q7IV78IqW-MV7WNQQQ
p3897
ag3215
aV3QCY93kLbH29Cctus8IyKQ
p3898
ag3159
aVYzNr5QN_t2tbxitwcuu8EA
p3899
aVGLoChe_wCEtZU9Ky1QYVMQ
p3900
aVXwuBHsqEyvL0bSFBi8fhgw
p3901
aVcL1nURym0sjqCnoaEXG0yw
p3902
ag1725
aVhdabpPPAaPp6Q3rQ47zZOw
p3903
aVQtRgDAK6k0JELN2_hi0ayw
p3904
aVfo87f1gtvtubohg9Y0Cd3w
p3905
ag94
aVlyesM1KaY4i7gPTbqqwXtA
p3906
ag1161
aVmqccXvBQsRFgB3YsgIWl5A
p3907
aV9yUQbREZregqICtcMYT2LA
p3908
aVEnRTgWBNBO9L5rmVfcik4A
p3909
aVUEnDxM1Hw_nrXQhH3wkMKw
p3910
ag95
ag1163
aVkycQfV7e0TeXrC6pGfyyhw
p3911
ag1165
aVYcMuFLgF09ys01dhQrfXSQ
p3912
ag1168
ag1170
aVWHKpwShRxBbT_6F8H1obQw
p3913
aV9wyk2kKdwhgMbh_x5P7HrQ
p3914
ag184
ag1172
ag1173
aVYf13-Phc5nPb4lHsuEYDzg
p3915
ag1176
aVtE4H7SuEBCdF8O-BMAAB6g
p3916
ag198
aV1YC7AbQMlNb5mLUlwwaa3w
p3917
ag1177
ag1178
aVDfOtgLP1a-a8lQlIvYksDQ
p3918
aV7rD52PKYYUpAQDSruT8UJA
p3919
ag845
aVgl2yB09qato9VYRE3E9zCQ
p3920
aVy0J2PrJh2LIDHHtT6DzkJw
p3921
ag206
aVSFeabOilq0-oEhI_BNj62A
p3922
aVbxXX4CxK2lbDH_v9c8uQaw
p3923
aVoM6pG025cZZpYgCp0II61A
p3924
aVHW501zexRpDLIYJ2dHWZ0g
p3925
aVr3vj_bKH5reCVOdI1VhAtw
p3926
aVAtLv64FV-Pw6JuT3XUKU1g
p3927
aVgGB-vp3BpRTIZjavvJilDg
p3928
aV-qon-kWR0gcht3-kScms2Q
p3929
aVtWQDyCxO3qXwwAWf-wwWBA
p3930
aVRhzx-LNOm4EU5Gi2IO0J1g
p3931
aV-QWYr7rrm1sVOhhls-7riQ
p3932
aVk7mYgFyxcEolgx4ye104Zg
p3933
aVExw0nd2djjGsE_SeBsyIzg
p3934
ag1183
aVPVsntb-pvZsvr38DG9EzRw
p3935
aV4n4wMkDnDY7cuWOya8UumA
p3936
ag2726
aVE6FWrJ_VMQmoD5CmM7wo2A
p3937
aVKjMloHECqYkQEJslek8v_A
p3938
ag1443
ag1186
aVF3SUSc5hkgZ6TvfRYsgnew
p3939
aVrx9X9thYgNImhZWe4o010w
p3940
ag1188
aVbLdLMuRRXPNAOhyGrLPXUw
p3941
aVncESfuN4AYX9C1T6ZtkErQ
p3942
aVkwX_qr5f9UzvlIQoRhxXyA
p3943
aV-5EkpowTbe3Q6adCIwUDeA
p3944
aVdwU__Tox8WkHyn3uM32aUQ
p3945
ag776
aVzQNJwaWR1M1zDjLNVJiNEw
p3946
aVPCn2IHIGkKd5gHGtooRzcA
p3947
ag871
aV2bngyPDTlvjC_uLMZGxelA
p3948
ag1193
aVP1FfIwLHaIhFA4Z_3M3_tA
p3949
ag1194
ag1195
aVxBF3jvTc5knr9RvtV4mOWA
p3950
aV7bYE2n75faWu_OjzxD0l0w
p3951
aVN3l2IfhyzfRMgKKSfeL7cg
p3952
ag1198
aVgYdx3POVviEoVSFXgIYElg
p3953
aVsYf2auhosrx8trbyP9nGyw
p3954
aVjb81I9QeoweTHP0PCUwCLA
p3955
aV7H9wF_UHLgWPpRCKu8TlJg
p3956
aVoT5CgJxBYnhu9i0t4xbOUA
p3957
aVPjOobIUE5onVqU_t7gskrQ
p3958
ag1200
aVJhWgmJHXb4avC1-vkpkkYQ
p3959
aVJyxvWMS4-4jMpNKbZ8ZY5Q
p3960
ag248
ag1202
aVBsZEIkjQaq8cx1KuTmaJSg
p3961
ag3559
ag1204
aV9-zcdAehWLYVGF3PJTqhIw
p3962
aV2318yhbz5bCU8RIgFnLdYw
p3963
aVR0hmtwcPsh3EwjE89-H9Bg
p3964
aVICoLhQP3bryEmiYeUNu51g
p3965
ag1207
aVZwLOkxU8HEcfWDd53axgWg
p3966
ag893
aVhccJ4i20bl0v5AgP6x7A7g
p3967
aVRrZ2GrdufU2SwwKBHrmv4w
p3968
aVf0NbIT50Kqqfh9b7T2Zo5Q
p3969
aVa3ZqjElMgAe924sbXZVcvA
p3970
ag266
ag1595
ag1596
aVSV8y4bp5HmgURzvUC2Rs9w
p3971
aVBEvJyfFQQuJw8ozxGPKMsg
p3972
aVbKyng2jcrIrxryyAZwgglA
p3973
aVcnSXX4gGaEGy75BElLiSDw
p3974
ag1209
aVkKR1RLWQdQKZuzawp9zfvw
p3975
aVfxZOOJtT6Zau7Asmppigkg
p3976
ag1603
aVUxxpwODJH0OWVB1bikK1SQ
p3977
ag1773
ag282
ag909
ag1214
ag1216
ag286
aV6VtLXtSqnK5cAOzqKJvCMg
p3978
ag1217
ag1218
ag1219
aVxhvXKSdlhwEH1uTDCQQU8A
p3979
ag1871
aV1BX80nfhUO9rzrmY1iURWA
p3980
aV7R0Yb2uCE15PVD3aF1x11g
p3981
aVpBYnV_sXSiuoCQfE9FlkSw
p3982
ag1609
ag1875
aVvLxpEHKZFzv8LYY5eeGjTg
p3983
ag1221
ag294
ag1223
aVrXIDrS8Rz8r09vH4gjHfGQ
p3984
ag295
aV4U8Y6PllZ737Y-v65sIF_Q
p3985
aVswl3A19s0l5nsftCJn8yPA
p3986
ag1225
aVKsleoDbJ3q3SD_2StQQfrw
p3987
aVhhjYGhB_Le97qh6rFynOQw
p3988
ag1228
ag1229
aVE4t43bnsfeOY2bv_8IPmSw
p3989
aVcKU-vVsl7f1bKA1T44HlBw
p3990
aV7sKrqsUKHP3m6Bnu6ufhog
p3991
aVWoLPc82ME2S9jcFQdm7ErA
p3992
ag931
aVwBMzAzT3haIsaA0JoDr1-Q
p3993
aVxpMWB6kkbB5D83m8whxlWw
p3994
aVn8D5r2nWgvQkdeJ47G4FGg
p3995
aVK6eK4nCFDx1p5akiRPwfew
p3996
aVMYCjEfdI2_RKIhl08HXz-g
p3997
aVcWRCTl4CDyuafTpTq-ecOA
p3998
ag119
ag3624
aV9e0YfZ3LZPOvsoL8NmqGHA
p3999
aVKjFr-ZMtvlgf4l6NbPtCBQ
p4000
aViFJnjnU7nhK9DddjDFSAgw
p4001
aVv5Eiu0WaNhDXBSNsAdjmUw
p4002
aV2UoBi821tXfIK9xU3bL8HA
p4003
ag2280
ag1234
ag1613
aVRrczVxs8amaeQm-bVx96sA
p4004
ag1238
aVYlBtgemf7OsvQ3NxcRh2PQ
p4005
ag938
aVFRPfithXCoYCPWRSV_pFlg
p4006
ag1614
aVqrCGusS7YO6rxt4iiuUUuQ
p4007
aV0BuQfzRo9xIsP3G8cBR6rA
p4008
ag745
aVil4v9CfJmDtjdPfjZFKGMQ
p4009
aVmKcCsAUf0lDtL8qWfQCDqg
p4010
aVEBwKRtjNeTjA5viMpc5lqQ
p4011
aV15HG_YyqAPIYpu0ceaSwHw
p4012
aVKjCJXReg0fsSsROikePBvw
p4013
aVludH0Z31B4xmo_894DzB8w
p4014
aVoaq-rXx-POZSCcRKvXdVYA
p4015
aVXCzjwOmvy_QROtczP8YlCA
p4016
aVQ2Y7uAMBG4lnwvAjA5Ymow
p4017
ag944
aVKlxYsP6HeFK7RFAPGDHCFw
p4018
aV1QbfwtfxTpLRWXi_89aCRA
p4019
ag2282
ag1242
aV2UCXCbv7qaO3d8FfQd4Ing
p4020
aV2GLQjV1-_KbWDVqa3sVCjA
p4021
ag1245
aVgbDZhohLAOL1ufdVWHMTxQ
p4022
ag330
aVZFdGatpUaeb37NZRGsL_yw
p4023
aV-Q8n4lIHMCyhPSTxVnGmpA
p4024
aVdg7rUnIT9pD6B3lYiPcvMw
p4025
aVcMtGPZcLr519RCRaTNMNWw
p4026
aV538mXHozPzaS-ikimLC8rQ
p4027
aVsHZP73HSW1eCBorgi8pUjQ
p4028
aV7j-oDHfVI6-Ecx89kTDWfg
p4029
aVbsqCkCccS5LY1X5Ub75JBQ
p4030
aVqXOVdBsytsVfVIXgYwz3Rg
p4031
aVHvTmWpz-hqUd118fvm-QPA
p4032
ag1255
aVzc0I2evMOPKNuu1mlm_tsQ
p4033
aVdzh-SckBSRHi46Nw2dCLTQ
p4034
ag1258
aVcZTdc_mEfriD_Skyc_S8JQ
p4035
ag65
aVdl6eJ6sowYvlVaHPv1zvWQ
p4036
aVn8lPV_DUvMHAT0zT0jxt2A
p4037
ag1260
aVfBPePXXKxYMwb1x7QHUZVw
p4038
ag965
aVlhWJQf9u1J5Dy3lsT8Ep-A
p4039
ag1262
ag1473
ag370
aVe389xSW5CZWOAVU6qbFZqw
p4040
aVKeJdhl0aRoWlCKlgW4eQIw
p4041
aVHfLRMg0pG5UI7kG0TV1O1A
p4042
ag1265
aVRGjokttxmK9-jTTntGB-WQ
p4043
aVnigBLKDOZz3sr1ZjBcoP6w
p4044
ag124
aVQYFkjMdzZlIci1F_cxhUwg
p4045
ag1475
aVkg8_LyP0TvxkcTxP8d0riw
p4046
aV2yB1wx6AHtTyOcR-J4rTyw
p4047
aVMLOeMcmWxhLCETunv7LTxw
p4048
ag1270
ag103
ag1271
aVJ4lY9l9LsKWBTa49cY0-mw
p4049
ag377
aVXO6V1_V6PXOpml8xoq6-YQ
p4050
ag382
ag987
aVRBXaH7_Cu3XxJ6O27Q0UTQ
p4051
aVA1R_E8ZQ5hsW_jrQwOqCLA
p4052
aVUEYeGewAHsCLA-OAFxKJ5A
p4053
aV2v3uI97JPebCDaTNy8jdwg
p4054
ag394
aVA46G2OAvLxFswiONB50Rrg
p4055
aVvy_drY9ch-RXZQ2KrruKhQ
p4056
aVM487o17d25K9Jnrf-bKFQQ
p4057
aVLgU9jnnEbiZo99KXrFeJQw
p4058
aVLTUAveXRNBEU5wAZQkBZ1g
p4059
aVXoNdeN1Ycx1skqg0aYdYzA
p4060
aVS9hmuiQQLVcn06PGr7W1Zw
p4061
ag769
aV0fkjHTNaMCT4FjZqaa4euA
p4062
aVEcUL0Ixq_5L9HCdyk2GIOQ
p4063
ag1279
aVyJXrO2yYyrGTXQW0FwU2SQ
p4064
aVTfUT6TUkgC6LmCqKQuxrTQ
p4065
ag1004
ag1281
ag1282
aVt3snhawHDAon3tDU1yknHg
p4066
aV1CBs84C-a-cuA3vncXVSAw
p4067
aVcwDLOu2G8ElhbCrVlOhu9A
p4068
aVJ2YmgWpQXUw7EOrUEkYx_Q
p4069
aVRor-3i2eib1r1dEwCfLMtA
p4070
ag413
aV8b76KB-71mOmbZteIGzO6g
p4071
aVHmXS5HN-E-DVMEY0mwjelg
p4072
aVQSB6qv6EvXebXu0n42X48A
p4073
ag1283
ag1938
aVBTXI96O_TqqJNLzF66ohQw
p4074
aVlp4BLoKTdzYs_tKYFUSDiw
p4075
aV8qCse4_dRis6mqj-RqrFMg
p4076
aVcd2A6niuS2S7Kb_SLoC4xg
p4077
aVtJCnUtGdyPyOGt5kudLrTA
p4078
aVTrCiLMGy_bxbeAQcuSSUeQ
p4079
aVzK9RBUix41DfeT6f3j5LGA
p4080
aVv61dL5IvtgMwYBDNopvPYw
p4081
aVaGze3Zk4E7-JkpSDrRi2ig
p4082
ag1018
aV2FaysNEitsM7FjMJHwtVAA
p4083
aV2d9yZ11uVa83OEQWxe4vlQ
p4084
aVb8UtgFOC6Y8NNerkTIF07g
p4085
aVXqKhC29UQ1ya1Py3bTzvAA
p4086
aV6xeljqP0tOzFuLK1aQJt0A
p4087
ag2696
ag1748
aVwM7-EQnNMZoWG3lRYudWbw
p4088
aVixj00MYlxLjM3OAG1GfZZA
p4089
ag438
aVrdS9Uy5sDv97k6phZTceWA
p4090
ag1293
aVKwADSZGoeiqnlR4vUpNhig
p4091
aVQggxXcppHbsFRTHOManGJA
p4092
aVaHtRqwCT2KUP-hPmKjaCrA
p4093
ag1295
ag1296
aVBoTQepQTjGbTXA4g4Hj-WA
p4094
ag3644
aVzcZWzI0sE51fOV6Ao-c_TA
p4095
aVKWN651EU2B9hAMKXKhVnWg
p4096
ag1032
ag1299
aVz2o5kP4SZVbsO5UCH1rP0g
p4097
aVo3gEHyDQx4N5pW37xz-IwA
p4098
aV2h_d-JP8l56FuVcEj4aVig
p4099
aVZnP2lsICCnZeaNi5Zv4QYQ
p4100
aVNLfQp6SUK9vwv3WNURbjIg
p4101
aVoYMsq2Xvzw6UbrIlMWjb-A
p4102
aVpvDeQWBMRharchOi7wi7XA
p4103
aVT1e6j0v42g9GElB6qbnIQQ
p4104
ag1307
ag1308
aVREIpw5yD6rl1qNtOya3pjQ
p4105
aVs3DBPiFsNKrwA8sK2xboFQ
p4106
aVP2r5tl57DWK5AcZ_GiSvWg
p4107
aVPUcbOM5EdCijAhFN9GAtBw
p4108
aVPkikeujXDX2uwvXQYFZW0Q
p4109
aViLZTW72FKjGNNhQV9kgWPQ
p4110
aVYZvXTxzycSpl0thbZbA62Q
p4111
aVWqAtgHTxgS-B8J6iHc4eeA
p4112
ag1967
ag1310
ag1311
aVOP0r3sKiPGhND2LCThB7Nw
p4113
aVv01l19If-OFsI_Eq9s7ZNg
p4114
ag1968
aVuAplY-glMJrCRlgajJdXlQ
p4115
aVnfPR_3WZ5um5iTN0gu8JiQ
p4116
aVANm9w9j-xVTQsNYrwOX-Mw
p4117
ag3532
aVRheZUFyesPne28fwAtCVCw
p4118
aVAHzOTzpGa3pIfYDSP2VYIA
p4119
aV2bBSnkg6KQF4jq90IHWhHw
p4120
aVGvBGYrTb6HKMA50TuVQztA
p4121
aVo-xFcSeSycAfqplklC222Q
p4122
ag779
ag1314
ag1316
ag481
aVPamuLXPdpmIsu8tvLQtKNw
p4123
aVJN0Sf_2yNzzCOS5vBW3fTA
p4124
aVETPYh5nPNP4cFG36E-QBkw
p4125
aVzJ9NdZoehzdURLEKUKcMIg
p4126
aV8uz_6_ogNrpb_MxQnhjZGQ
p4127
aVwARRJMn7dDk4CYuqPoTyLw
p4128
aVcC8CA5khThM31VaCZRw7ZQ
p4129
aVE2pfdKBpou7ZdIBxyZo1PQ
p4130
ag1320
aV0nwOwZGlB4v6XfuPLd-HWA
p4131
aVtNNkU_58J-Ykkxab08p3sQ
p4132
ag1321
aV6tCW7o9BR3o7N4KcyW8X2g
p4133
aVb8iHKolCsC4ZTM8X9-L01A
p4134
aVt0CLmXID1lxu1Z2rAwl-OQ
p4135
aVk7wP-m8GgKC5QiPH-ZD6iw
p4136
ag1325
aVENuIdqFM56BVskPIEnsqSA
p4137
ag3049
ag3628
aVk4qsbZ4eUxh1sFK2xLzOWw
p4138
aVN2wqhdM_r5nkvumlrXxEUQ
p4139
aVARZDpjHbuoNu_e5197PhwQ
p4140
aVu8C8pRvaHXg3PgDrsUHJHQ
p4141
aV3-ohG1LYG5gi_9pTjsAJew
p4142
ag2224
aVsJM4ogveiQAlHQOrzHVpQw
p4143
aVoitC0n-fFXRaiMCYK-ZQSA
p4144
aV9iwVr4DdeZeRn8EHan7XfA
p4145
aVFH59gBe6Ji_O0UKFwXnlHQ
p4146
aVXBuj07BYkcLa3W2kHilKtg
p4147
ag1332
ag1333
aVwpDGcvtWxbz5pb7nB3_SAg
p4148
aV7mL9cvICl8fuCQTM89a-SA
p4149
ag520
ag83
aVZvyWZ1KAMiBKZnZqjVDzYQ
p4150
aV_Met0Sfox5j97jnRCxr9tw
p4151
aVKbFb1n-RZd5HOn2q1qOD1A
p4152
aV6Ac35m5DDiaIcHfKJL9guw
p4153
aVwmyYne2wIN1zUBAWr4iI6w
p4154
aVSZ-w-jLaSJocRtAQB2qDIA
p4155
ag3141
ag531
aVn3RdEfD9VxLu0cZ7t3GHdA
p4156
aVMHEOzkETZMbN-ZZx_XL15A
p4157
ag534
aV_xSCB2TZ-s6yTeafRnzK1w
p4158
aVzANLGyJo62y0P5dwoHO5Kg
p4159
aVRQKrr8j4jS_7ubGMfAwnIQ
p4160
ag1339
aVwXNHLkDkh0HKGJeYVnpafQ
p4161
aVZD1bQsIDxaUjXKFqEhnZTA
p4162
aVx_AUsCP73LBeTXnec1tqkg
p4163
ag1343
ag1346
aVvqKwftWQXkygl9c0DLJ66g
p4164
ag1102
aVRSgEiIaf89sRgaIp_e8-mA
p4165
ag1351
aVJi3jBBWln4ABhVfGXXA_Sw
p4166
aVgpaJYV8IT-oT9wOt16BlSw
p4167
aVoYmlGHT02rCHJubUl0jvTg
p4168
aVFM2VxaMmkRv9emBQRAEKsA
p4169
aV4EljqY21fLOtLaoWCJlsIQ
p4170
aVJklDaUtd-mp7K2JVwiqVjw
p4171
aV4y49CSzDlkZB7nkyViZuzg
p4172
aVS0Eev1xIoEV68vCiucyfmg
p4173
ag1354
aV6o6XxnI8RWhnAVSdxqCJWQ
p4174
aVk2X5LtswL6r6Of5O-Ccb9Q
p4175
aVSIiPULn2mWj_m13cNDIEew
p4176
ag1657
aVVlf3TF8ZDGp94VGI2OdyOw
p4177
aVbELqNoqvhAcrOyL-i-iwpA
p4178
ag1521
aVEy1hr83C3ITho9GKtc7w2A
p4179
aVRK-OmmRUwaV7JI8vfdW-eQ
p4180
ag1360
ag1361
aVStguQllaFpqkaOi1I6T2Xg
p4181
aVuNumMb-5qNiVzW6T32Uiag
p4182
aV-b_a8H2CAQhOzy6ErVHbmQ
p4183
ag1123
ag1362
aVFffPXnuuKYWbi3Aj8taNcQ
p4184
aVmLP-jIIRdoaYM7fJqqFurw
p4185
ag1364
aVeAGvvpsMsf6TRlR3aKmngQ
p4186
ag2028
ag3630
ag3869
aVjEm2bOtR6oyDOdAuOhOEaQ
p4187
aVlq3igA-wjYGgDfpx0AG2Sg
p4188
ag782
ag1368
aVu-8sFq05DQ6PYCR5HiKZ2w
p4189
aVzkmYfnGF3WilPsGiIkxYYw
p4190
aVzr5sfcJouPYW8eSXIp_aVg
p4191
aV2aSu7l7dreDhNgL1CnhLnA
p4192
ag592
ag593
ag594
ag1373
ag1796
aVtSNjKaExGXNwc-stHIea9A
p4193
asVPool Halls
p4194
(lp4195
g869
ag899
ag931
ag968
ag984
ag1065
asVPiano Bars
p4196
(lp4197
g833
asVFilipino
p4198
(lp4199
V6QiyLWCG6AYkzKYuKdrCSQ
p4200
ag14
aVA8oU_uMQUO-rJ2p6oKnFZA
p4201
aV2gdDA6rNrBSVfccbpQytdQ
p4202
ag3627
aVOcW2m6ta8G6seRU-lBA41g
p4203
ag2576
asVEgyptian
p4204
(lp4205
g1482
asVFood
p4206
(lp4207
g729
ag2255
ag793
ag1547
ag637
ag1569
ag2231
ag2043
ag2044
ag3759
ag657
ag3381
ag1571
ag2639
ag153
ag730
ag703
ag154
ag2256
ag775
ag157
aV7x0i0seshwLXBVAam16wuw
p4208
ag814
ag2750
ag2725
ag164
ag819
ag165
ag166
ag169
ag704
ag1815
ag93
ag731
ag171
ag2155
ag2050
ag3621
ag175
ag176
ag1820
ag178
ag179
ag10
ag180
ag732
ag733
ag1824
ag2257
ag2053
ag734
ag2258
ag2054
ag184
ag3452
ag2055
ag735
ag3782
ag188
ag189
ag638
ag1581
ag2259
ag193
ag2260
ag2160
ag2261
ag197
ag199
ag3454
ag204
ag1677
ag1583
ag2262
ag1548
ag2263
ag1549
ag2062
ag214
ag2264
ag11
ag1550
ag215
ag217
ag705
ag1835
ag2726
ag220
ag602
ag3622
ag736
ag2265
ag1840
ag2266
ag1678
ag12
ag232
ag776
ag2071
ag2072
ag1590
ag236
ag2267
ag2268
aVN87fQgwzj7um_BaI8IDpmQ
p4209
ag3144
ag2269
ag603
ag1592
ag13
ag14
ag15
ag242
ag2270
ag3956
ag1199
ag2075
ag97
ag3360
ag2271
ag2649
ag1551
ag2272
ag2496
ag255
ag256
ag3616
ag889
ag2727
ag671
ag1854
ag261
ag2078
ag262
ag2273
ag639
ag265
ag16
ag1595
ag2170
ag737
ag2274
ag2709
ag3623
ag706
ag1597
ag272
ag1599
ag275
ag905
ag277
ag278
ag1864
ag738
ag2275
ag3650
ag739
ag740
ag287
ag58
ag1606
ag607
ag17
ag676
ag3523
ag1875
ag2816
ag741
ag3173
ag2276
ag742
ag743
ag2277
aVn1C1A6jmHKRjqO0yNRidgA
p4210
ag2278
ag306
ag1775
ag744
ag309
ag707
ag2279
ag18
ag2178
ag3624
ag3803
aVDG4CznrJTyjhDHbYDs-45A
p4211
ag2280
ag321
ag100
ag2831
ag2832
ag3651
ag3625
ag745
ag3617
ag1552
ag1896
ag944
ag2281
ag3105
ag2282
ag946
ag948
ag3140
ag333
ag2283
ag1468
ag708
ag1553
ag2284
ag2692
ag335
ag101
ag339
ag1469
ag2728
ag2659
ag1618
ag345
ag348
ag349
ag1620
ag2285
ag351
ag353
ag354
ag709
ag356
ag2094
ag19
ag20
ag640
ag641
ag364
ag365
ag21
aVLUFdqNSABD1A2a0gdWApAQ
p4212
ag971
ag122
ag3183
ag1916
ag36
ag372
aVGs4hqm1rUkMHSwhLWKaG1g
p4213
ag2605
ag3015
ag2195
ag2286
ag377
ag1554
ag2287
ag125
ag1923
ag746
ag3268
ag388
ag3626
ag747
ag395
ag396
ag399
ag1761
ag710
ag2107
ag22
ag404
ag748
ag407
ag1006
ag408
ag633
ag409
ag3189
ag3760
ag1629
ag749
ag418
ag419
ag420
ag750
ag1631
ag1555
ag3652
ag2729
ag2112
ag1685
ag2114
ag425
ag3653
ag1944
ag751
ag427
ag23
ag711
ag429
ag777
ag1951
ag1635
aVwk8EiiHeB3TFx0YCOOityA
p4214
ag3654
ag435
ag3028
ag438
ag1955
ag3655
ag1032
ag442
ag24
aVqldMf_yAF4BBib64xIsNMg
p4215
ag444
ag752
ag2205
ag753
ag1556
ag2288
ag1304
ag3656
aVB__5VkrJRzh99A8vccGNeQ
p4216
ag2289
ag1557
aVHPrVYd5pSvi6VNflYytvfg
p4217
ag25
ag690
ag4105
ag1962
ag3582
ag1640
ag1965
ag453
ag778
ag1967
ag463
ag466
ag3627
ag2290
ag1558
ag1642
ag468
ag469
ag472
ag2672
ag475
ag2291
ag779
ag2292
ag480
ag712
ag483
ag2293
ag488
ag754
ag3618
ag490
ag1061
ag3370
ag132
ag2294
ag492
ag713
ag1559
ag1067
ag499
ag2213
ag780
ag502
ag509
ag1994
ag3628
ag26
ag2571
ag513
ag3763
ag515
ag1540
ag3136
ag3685
aVP2XKcDLVHUuOdGNBQtMFRQ
p4218
ag642
ag520
aVO6hDE3W1lSDz4LCUwx359Q
p4219
ag521
ag1560
ag2004
ag1561
ag530
ag2295
ag3141
ag532
ag27
ag755
ag3372
ag4158
ag538
ag2137
ag1562
ag714
ag3152
ag2296
ag781
ag542
ag2297
ag1762
ag696
ag756
ag1102
ag614
ag715
ag2736
ag28
ag29
ag697
ag1563
ag547
ag3629
ag757
ag1354
ag86
ag1356
ag2298
ag2299
ag716
ag615
ag3373
ag555
ag1656
ag2024
ag2730
ag2631
ag563
ag1757
ag2300
ag698
ag616
ag2679
ag3630
ag30
ag617
aVzgjMObNE3iH01oEZw76Q7Q
p4220
ag577
ag2145
ag581
ag3764
ag2146
ag2301
ag782
ag1131
ag758
ag759
ag587
ag1564
ag3542
asVBeer, Wine & Spirits
p4221
(lp4222
g1824
ag4209
ag272
ag1775
ag944
ag364
ag36
ag750
ag4214
ag3028
ag469
ag3685
ag4158
ag4220
asVTrinidadian
p4223
(lp4224
g3377
asVHimalayan/Nepalese
p4225
(lp4226
VHxegWRjhi7m73mXRI8qQIg
p4227
asVFood Court
p4228
(lp4229
VbqeheUxo7VIiCkPczIkKcg
p4230
asVHotels & Travel
p4231
(lp4232
g1723
ag1665
ag638
ag856
ag1732
ag1733
ag1668
ag1734
ag1735
ag1737
ag1742
ag1745
ag1751
ag1756
asVMusic Venues
p4233
(lp4234
g109
ag111
ag112
ag113
ag114
ag116
ag117
ag118
ag119
ag121
ag123
ag126
ag128
ag130
ag131
ag132
ag134
ag135
ag136
ag137
asVLebanese
p4235
(lp4236
g1460
asVEthnic Food
p4237
(lp4238
g732
ag3782
ag2160
ag199
ag1677
ag736
ag1678
ag1597
ag58
ag741
ag3173
ag4211
ag2831
ag2832
ag2692
ag348
ag1620
ag4212
ag3183
ag4213
ag2605
ag3268
ag1006
ag3189
ag429
ag4215
ag4217
ag502
ag2571
ag4218
ag2736
ag3373
ag1757
asVHot Dogs
p4239
(lp4240
g3604
ag2954
ag2957
aV6280osiJDQ52g_jVEgCspA
p4241
aV73Gb_mlpMyq6K34OhzUaXw
p4242
ag2964
ag186
ag2159
ag210
ag3786
aVbjv2bf_kX1cNl-2OPm4Jig
p4243
aVvjnVdmD-loe7X8bW94KdWQ
p4244
ag2169
ag2172
ag2989
aVhWIVlRQh25VuSQENGuHDhw
p4245
aV3or9a1MgzYNf8UBuY3VoWw
p4246
ag2993
aVtGMbRL_Ol8Mq_NqbqzG_yg
p4247
aV5DX0HKM8CUI6F-GMagPdXA
p4248
ag3002
ag3105
ag2185
aVCvj76Of5Mo9kI5f4UMim6A
p4249
aVJ9f-9Prw2YVM-fiZqv2fmQ
p4250
ag3818
ag3017
ag2685
aVTqpfPwMpBKI5yiH-diJkhA
p4251
ag3824
ag1000
ag3024
aV3xVXpNDxZR7zPpLARI6_lw
p4252
aVNX0LCwfBz-zZHVBqFmJAvA
p4253
aVqHmamQPCAKkia9X0uryA8g
p4254
ag2598
ag3042
ag3045
aVSuQpsHxcxCAB8kxPEIXiBg
p4255
aVwVgJhDZutroaka8nw_rCaw
p4256
aVLahgT0Dec0B6NSws7VHiJQ
p4257
aVl2sEA8T4kPgJOicXqI8KXA
p4258
ag3067
ag2219
ag3069
ag1660
ag570
aVSegbKVKBUEkgy6Ob4ttM0A
p4259
asVJazz & Blues
p4260
(lp4261
g127
ag138
ag46
asVSeafood
p4262
(lp4263
VoEP8EQRxILT8svJmALwh6w
p4264
ag730
aVtCHzMY3WnCxw2lHvnMcXFA
p4265
ag1813
aVv5_BWi9WZ5-fxo133IlFJQ
p4266
aVhW7KINz9iwwmtuiDUNgoPw
p4267
ag2056
ag3781
ag837
ag838
ag840
ag848
ag1383
ag3637
aV3g-OXwOHASK8bCuInOfNKg
p4268
aVAraWw6qnkCBeoJMRD9ml5A
p4269
ag4209
ag1386
aV9bR0hOq5e6PAS3YY02ToKA
p4270
aVoPPvQTdHZ7cwbVzpT_R4PA
p4271
ag1390
aVfrnSVqsuOOx_5VYV6H4Mew
p4272
ag3616
ag888
aVgekPL0Kc7w9zLDT3EulvxQ
p4273
aV6wpXxJ61yL6h6x6iYcl5IQ
p4274
aVzrQAj03aHI7kpmAiyKcKhA
p4275
ag1392
aVQ_-zh8OKJ5lqkna2m-1qXQ
p4276
ag1393
aVx05vLVOH2OQr-8ATmfItRg
p4277
ag677
aVcjjTKskdj-f8dHYU_0AtIw
p4278
aVxlCVbr56NU9rFFWPRcRUyA
p4279
aV3OmYvTrYQFwITFq4vm6Vsg
p4280
aVlAZbHUAQpBZtK2bd6o96eQ
p4281
ag1397
ag1398
aV7895YHS5qGu03R-C6aYg9g
p4282
ag935
ag1232
aVMe8tzKp1WhKinnd44OvQ4A
p4283
ag3617
ag2623
ag951
aViGeC8aXn9z46rw0ZBBhhSg
p4284
aVw9oW1PJoAjZfv85hxZbnEg
p4285
aV0cYGdh3BVnIiLxPB88fEUg
p4286
aVQJ7KuBFj6iKmyS4BVGGJnQ
p4287
aVaURgpKldq6YKqAleHaFUtA
p4288
ag1402
aV02goPV7NW1StFyas5PVSeg
p4289
aVbxzM9c5dqXsDB3uTiQHM2Q
p4290
ag2716
ag2119
aV2C7Gyve_y8WRiJmB28k38g
p4291
aVafoQr3drIs-0vbh42O0Ewg
p4292
aVOgQgLT3TZ5zv27U9w2zQbg
p4293
aVB7gGVGlBeM4v41Zy79YRhQ
p4294
ag2121
aVHMLl3bJyr2d8QEH7MeBrnQ
p4295
aV1K6NHkkyn7GRAoicQmFysA
p4296
ag1315
aVzve6yzrL4qPiQ8eXJn49xg
p4297
aVLXIcWvnnNMl4kg0LBhC6Mg
p4298
ag1503
ag1408
ag1753
ag3618
aVR4xJYCYy6JR_elxvn_8SNw
p4299
aVcEC3lx06tjhMOAomZnD1Sw
p4300
aVumjK84glwdNfnQ82VDx1Zw
p4301
aVUWSVbdWub1ZLzRb9--4-mA
p4302
aV__EmsZiRXiUmljbfpOqZig
p4303
ag1414
aVNv0zpkTLr-2b1VIJfaj2Wg
p4304
aVvP-LK8ta1SkcQ-vPEPy4cQ
p4305
aVeNIjLjdtLXIV5p08CuvYxQ
p4306
ag1111
aV8fDhtPpDAnFN44LVUIe3qQ
p4307
ag3070
aVQ_MHfNjVO07eFPn8zG6nIg
p4308
aVv7Ur1BlVjxZBWqZYHURRPw
p4309
ag88
asVFlowers & Gifts
p4310
(lp4311
g756
asVBritish
p4312
(lp4313
g953
ag1908
ag1044
ag4219
ag1106
asVSoup
p4314
(lp4315
g154
ag196
ag243
ag292
ag310
ag2395
ag343
ag4286
ag1622
ag387
ag4253
ag465
ag770
ag79
ag540
ag557
ag585
ag589
asVHealth and Medical
p4316
(lp4317
g1674
ag1685
asVConvenience Stores
p4318
(lp4319
g1592
ag4210
ag348
ag364
ag1631
ag1640
ag513
ag758
asVComfort Food
p4320
(lp4321
g1724
ag1727
ag1730
asVPortuguese
p4322
(lp4323
g3623
ag1298
ag2317
aVMva32iGvl0xICU76qwiwyw
p4324
asVMexican
p4325
(lp4326
VCyUfjTpoIgNghGlqfz9aEw
p4327
aVRyt1Fhgz7sixMQSJiLyP_g
p4328
aVRaE9ir386tfLGwtDN9W6QA
p4329
ag1689
aVvwcikFtT-pmZOMFA1ARTTA
p4330
aVqQouzhAOkppSq10tRI0nxA
p4331
aVrWDZv7FPuIlTfosY4gZ_lA
p4332
aVis_3J5wgSNx142iNaNrSHQ
p4333
aV2ERnU_ihjdwusbdlXSf3gg
p4334
aVEv04GeSgAXwKsO1qJiO9xQ
p4335
ag2152
ag3080
ag3773
ag4208
aViNQQFc8BhrPdfPJaeKIyYw
p4336
aVTUWrwm9iOsbEzyo6s4IdFA
p4337
aVrjKMTKPsjYw4RtiMpHquJA
p4338
ag2154
aVSUu89ociaWYnPx4za97ilw
p4339
aVYeSD8Bbn5MEyjDbtEBAx0A
p4340
aVWXKx2I2SEzBpeUGtDMCS8A
p4341
ag2156
aVMpAhuv_BBhYHDElgx1pD4g
p4342
aVuOekILeQ3rd8McrWd4Xj_w
p4343
aVLdfOPA0n7_KgeckwP3mEXA
p4344
aVm5Ni6Gd-7bSv7kABbQUeKw
p4345
ag2157
ag3779
aVipgnAjJ5TUBWGmGxxzoiGQ
p4346
aVuaPEPXxiEf8rNFbzFyy3Cw
p4347
ag3781
ag843
aVOx70VXLS3IcwzVIl9vimZg
p4348
aV-k4cEHUNUK1HVaxkh8lNzw
p4349
ag2159
aVFhsgnHBy_PetTmZF6E8fwA
p4350
ag3785
aVm_76-w-WFZTeA7zIV-mKtg
p4351
aVzlftv8fqh0KnEmmCuX6azw
p4352
aVm8oV_h-OV3AoPicvieCJEQ
p4353
aVwrfUiehuuGwBB8n8wGTM1w
p4354
aVKEeJJX_QD-ZpSGHQWMh3WQ
p4355
aVtg8gshh6TY0I7u87hHhWyg
p4356
aVirIH9wP1XtErqaQb8TBXww
p4357
aVgfYxftZlHS8T29reqfAF4g
p4358
ag3622
aV5OJ2xEaVY04LCNA6MWg2lg
p4359
ag866
aVoWg4Hgia3CG9M-y12COH-Q
p4360
aVjNyA9xZfeYj4Eo4CuwzYyA
p4361
aVPtumNwRcJHivPfx4e8K56g
p4362
aVtHej-ql4ZO8u0jSQAHDgdg
p4363
ag4269
aVZx5fNxBc6gIRRrBCVvYgqA
p4364
aVVIJ2KiDKhUVhhpNylEIfog
p4365
ag3790
ag3
aVDMXkPjaKCMQjNB-_Ll5geQ
p4366
aV3QRRptCEfjUtnDnZ4jTzMA
p4367
aVTP9VWYapb9rgc-pNofYNdA
p4368
aVvQTMu1jkFZUIkb_EmYPa9w
p4369
aV8bvAuGRVIo36V2AANE3cjQ
p4370
ag3793
aViZP6meYpcgKW9ACSdSR55Q
p4371
aVh6aBrHyOvdvjLqfTFL5u4Q
p4372
aVPESeDko8CLufvzIS0SyDCQ
p4373
aVBU6FTbHe38g3Enbi077fVA
p4374
aVRUiGb3P_5HN_Ki3a2r13GA
p4375
ag3796
aVgneNNSYx2rz8KnbzyOMarg
p4376
aV3Wr0o6qZfbUoP7mkl0zPoQ
p4377
aVJCeKdD3GcqEiIpS1hGTqlQ
p4378
aV5RAmtmQqunQWz8FHMAZQjQ
p4379
ag2979
aVtjM2CZqRJ17oFapBTmGovw
p4380
aVtJcGrLXB0zViCoEiYgcs1w
p4381
ag2080
aVXXKl1x_LNBxWNZJgS8J39g
p4382
aVybewokFnvF5TSnBsVXyUTA
p4383
aVPD2MAlYYi9HCqPH7IBKwTg
p4384
aVfcMRE2CQIripUhIaqDeLPA
p4385
ag3327
aVOIteGpWzFpQblKuwt7H80w
p4386
aVManLepfJnLjb9oJ9asWl-Q
p4387
aVol1dWmwuZp4YTJeg84NdDg
p4388
aVtDRW4On5HGiV3mABQSGx7Q
p4389
aVHw4Biftjk-AVaGJA2N_gjA
p4390
aVisqo2cChN8O2mpmydHJAuQ
p4391
aVJCgvJyyYac5nJ1s-R3ZEBA
p4392
aVlU9BOA3QJE8JLS0YhEUQAQ
p4393
aVb7gwdXQ4qNbHa5dMaty-7w
p4394
aVzQ7RsnP1dWVJsUNRWE3DhA
p4395
aVys8VvjG4I0Jc6sAnsy3BOA
p4396
aVgaR5jDvZsOC0RQeY-W1eqQ
p4397
ag2173
aVb8TOJDmpFIngx8evRpn5Yg
p4398
ag911
aV0VQT_1QvGajQw30yD9A_vQ
p4399
aV0fv9VKmk-tyDpj4h8Zt6Jg
p4400
aV8S7RKI8swuq8V-4ZN9cDvQ
p4401
aVHdGDvsK8jEdstSS5g21FDg
p4402
aVOgojYmoJK5YbgoMD0LC0tA
p4403
aVLGZimmjxbfGwBHgPZCx5cQ
p4404
aVpvWvCZhnVCx0c2dbawcbSw
p4405
aVXzWUVPs5VcCTEVtWYZVYRg
p4406
aVK4Sq3cz0-73HWS14K6I6Ng
p4407
aVKP-r5SDAeqqNwn865gD3ng
p4408
aVL6dK5EaG_zMkjOwkMi4S5Q
p4409
ag1697
aVqG4njyS8j8an-alwNFflMw
p4410
ag743
ag1698
aV49aR5Wq1UjE2xPIlq1RNjw
p4411
aVt7zMY-nrQo09-UGtxOIugg
p4412
aV6a4-SPP4QJbJuHoMhPKnVQ
p4413
aVCkjlcv3mOPnCosSEPb4tmg
p4414
aVjZBRs1UCbylCpcTOQ5Bi3Q
p4415
aVf2ggWe2Lw3cGeA5T7mk_ZA
p4416
aVKQ9cAyXge_aYnMZ3DW_-Rg
p4417
aVSxW0_7lZW_qXr5z8KCo9dQ
p4418
aVPxCSjjlOmAZVox_UyCGrOw
p4419
aVpp7GzAZtreah8vqJOLbqWg
p4420
aVea769Nc6dltC9QYTJXIzuw
p4421
ag2088
aVJndzI63laFLapKi9Tus5cg
p4422
aVr4panjUBSyDOEtDsSWyf9Q
p4423
ag934
aVxKsPbRN5iMqmBx6GpkHjpg
p4424
aVX5wfvGY7sizqKFsaXV3XhA
p4425
ag4211
aVBtpO21oEn-Yer3kYjGlHHw
p4426
aVG9ryMDML42O5sM1cqXnVjA
p4427
aV1TUn8LfJBfOdWes5bL_DOA
p4428
ag4283
aVBxq8tBNvbejCwn3SCokx9g
p4429
aVGI6-M1x1SW1MTXGC5fPbnQ
p4430
aVg5NZIyQ9ola-vSCLVoAgsw
p4431
aVGpOXrljkb2JuunyYokS-hw
p4432
aV-cKjQJsU73tLKFA4unJbww
p4433
aVjMhmL_bdHJmd4GGlF0IBgA
p4434
ag3805
aVEkG5CXl366qLwZlTJbCuuQ
p4435
aVvzVUMZ9iBQRzczvC6Lz4vw
p4436
aVC6ffz9ppgZHB9t1AauIVhw
p4437
ag3333
aVRkI4ePwxDqgtML9TTz45JQ
p4438
aVngp7SwVk038j39eYuBL47w
p4439
ag3334
aVYB0LffuXLv3RX2e4qOCgXg
p4440
aVxX2uM2EIeR03KrGBCrOrcA
p4441
aVqO-Uxeqp6oqvdWb811QYfQ
p4442
aVAH-W7jbpW6gb95oNq1kbbA
p4443
aV4_Ybmt8B80jllYI2K4Dncw
p4444
aVp8hQhrMD9Ls4nAdHzGnZzA
p4445
aVHQJjHA6BRcRD0vR5askdkQ
p4446
ag3106
aVdEh85sFLxh4P35jhBcHrhA
p4447
aV9WeUsbK60C4dMceUHfDolQ
p4448
aVYEMRd-z8LWu0Go83xiqErg
p4449
ag961
ag2189
aVkUICYu0N_TbtCz0Z8ynPFw
p4450
aVB0_HY1F7bUqB3ONhy73udQ
p4451
aVcQNRmAK2YZw08J39l_QOMw
p4452
ag4288
aV8pJBWgMEwZS0liJbRaRW_g
p4453
aVWOAUHpYxc4Ga9AuFqAqxrQ
p4454
aVRcEqpHd5d4PGJ50z1vuO7w
p4455
aVRxcjy1BA7y9pAiNJft05jQ
p4456
aViYS4g5cH2VR45_jpWKEVEQ
p4457
ag4213
aVD0meA3T13ROCsNeaQ4Z14w
p4458
aV8oHCb-XvLpqCQD7En17Fzw
p4459
aVpufrB8XzQ1AtSJt94OPuqw
p4460
aVXdUJ1x8JZEB5Q1wer-c28g
p4461
aVhibPCAbDkDgeuAzbWt5UAA
p4462
aVRDpS0pv3HJATM_0Xb8qKAw
p4463
aVp8bPLWRaqSk8CxztdHEe1g
p4464
aVCfXB2vQ0_wLzwhVUpkj-XA
p4465
ag3674
aVQGmMBQKATW2M34qHazeGKQ
p4466
aVv070pCAUGi1NBwD7_Jijdg
p4467
aVK-vL-ShpGsgbwf5chcE6vg
p4468
aVDQzcWaGG1D4oXs565omAMA
p4469
aV0MEL2hYFXDHR8X8v1VnByw
p4470
aV8nRvw0WrxIXAblfn8oh9Gw
p4471
aVT8sFo4cijoGTDfKg8tA_9Q
p4472
aVgJBU_50vwOqvAcEqclWH4g
p4473
aVbCXtHSr8a7tnk2DwsodgyQ
p4474
aV-p3qUu9WlYCKv1kfb03myQ
p4475
aV695zb_QM1xk0maUCnIUANg
p4476
ag1701
aVZ5augrU1lSFCuzy_Ykimrg
p4477
aV142ixzjxpVi7VxR27Dsm0Q
p4478
aV5aznKNeKRQWjSOeCelR0ow
p4479
ag2199
aVMbKhuO-4uYPc0NRZDRWoew
p4480
aVicfrDjfJwVUOyghyPS0yaw
p4481
ag1014
aVc9Ag1wTxKjr2S01BkWNq-w
p4482
aVzMfZLd5_h5W8ZVxTNoeJyQ
p4483
aV_zCwyuW5XrRKw8oK8EM49A
p4484
ag1702
ag3339
ag4073
ag3831
aVBZr9Yn47aWoh1kG5OrsMqw
p4485
aVq33FT8iYvU2UUbJuiEQWUw
p4486
ag1940
aVuMuTnzVi9DzDXfG7gVDU3A
p4487
aVsyTxG8mBUsdhbAIFlvoW1g
p4488
aVyTjuYyapvDgTRbMgiYtePA
p4489
ag3342
aVxa3tQAZETVhnzNhI2KgIZA
p4490
aVicS-Sk0Wmu23tfvM9JIKRA
p4491
aV-nztOncReLy3VlGoecvLBA
p4492
aV95BNcaZeN3iIkKcO0vlS8Q
p4493
aVnSGYp0DP2zAOHvTsezG0Ug
p4494
aV572QXIra8iqEVJl3C_-ziQ
p4495
ag2116
aVtqz58A8jvk1Su8Ylcy1pNQ
p4496
ag3364
aV5FioG81fXr7DKVqfzN8uyQ
p4497
aVJb7TuFTJJuyde5IIJHUa5A
p4498
aVVipfYExJjVsD31KnUZqHJg
p4499
aVle-ggzbaqSpm_qN6R8pUoA
p4500
aVs3aJzSKD-tBGR0MNGw_sDw
p4501
aVfmi0HUhetIjMtqv9JXS1HQ
p4502
aVFmt_ajwh3BHplQ-oEr-52A
p4503
aVuPJOOCGJItKXlTqTkw7J8w
p4504
aVeotbWLCgZJ0Z5wKhSFiOww
p4505
aVjWuvc9Fgzz3u6TBwHdbSDA
p4506
aVHj1iNlNjj7jYRQ8mYD4Cpg
p4507
ag4215
aVWp3HCVY6OWzY4nOvSted4A
p4508
ag3840
ag129
ag4217
aVjylGZBet5C2CwJ-X0odhsg
p4509
aVm_g1SSCAah3ThdnQD51nmA
p4510
aVTgkn_sDDcpzft5_9tsScug
p4511
aVS8VRQCBrbZI04zjCOc1RAA
p4512
ag2206
ag3366
aVwW9eE3x2TsndTKqRdAMhLA
p4513
aVFBRxoQSWtziiU_A5tscVGA
p4514
aViLxG2Oo8HNSZFvJvba4W6g
p4515
aVYKAwpTnKO-n5vB9-pqaCLQ
p4516
aVlcRIgz2-VtZbRAN79EKYSw
p4517
ag3846
aVC79XUXMJntLlaFJ6SGDfCw
p4518
aVTXYNh-U2aX7I7ssX6e5kaw
p4519
aVkshtb8j4Uvk_djBdnvYMyg
p4520
aVZqXTxHO5uBvFD4SMmjEimg
p4521
aVA_tFtTYKZ1e1O9NVHbA8KA
p4522
ag2210
aVMmoejSgRqZz-jAsvP5Ge0Q
p4523
aV7ydjd8qNTuZnJHIF4GDBTA
p4524
aVNGQLgF7WL6pU73ItsA0nEg
p4525
aVLN1T3r3gimzRgT-4PTiQgQ
p4526
ag713
aVi_N21-BF8Lj3ejHEldeWqA
p4527
ag3854
aVGTYA7fQK71WN9NU6ro0WmA
p4528
aVnBZbibjp9PKTsTZkFxAwfw
p4529
aV0v5gedzRunqlbgtj3u1QCQ
p4530
aVT6y0fHkARCqE-8CMs5qHFQ
p4531
ag3120
ag7
aVDHrLPCrYeN0ITEsutR0VqA
p4532
aVFrRUjTfRY-4Zqyiz-Erl4g
p4533
aV3ig_tq9MqJyMiOUI-6kuTA
p4534
aVvftqoXkggSzVxwoRU3kgqg
p4535
ag3053
ag1792
ag4218
aVZtj9wIVSVes2lf2bG7oqew
p4536
ag2215
aVovJVl49ktQg2IBvqvhwx0A
p4537
aVfqFre6p7U0VOnrjl8Y1BuQ
p4538
aVi3iClmS7Z3GZBTY9_-94MQ
p4539
aVvC_6J_nGyf4J8xt-Vu6Shw
p4540
ag3859
aVkfynkqRGfOyAw3nnU01u2A
p4541
aVqAMtBLWBd8ten8d_CuwtSg
p4542
ag4304
aVMAaCTnK9eiDUjwUGUTLaMA
p4543
ag3863
ag3864
aV5LHQAL-bki078OUxwd0jgA
p4544
aV69k7MF2-nXq-tNNHrJYONw
p4545
aVI-chJJ72VHd_-WAaRVWhTg
p4546
aVVwBnBQ04rnAQftjap0nvwQ
p4547
ag1712
aVeXKblEHP3YJYU1Awz08hVw
p4548
aVjLcbWAZ_ajlYu5kkcOBUvA
p4549
aVg6B2TZYS7JKKpNWPwVnwqw
p4550
aVozEhcaxRvH9NtwbBoUatPQ
p4551
ag1715
aV_a6jhRFIgOe74U73T5B-Ww
p4552
ag2141
aVVBTYsHmf0uPACFlCuV4l9g
p4553
ag2218
ag1718
ag2611
ag1114
aVZLbpGclbk8a-PSi1ocS-2A
p4554
aVNI6F9NFOGhG0q4G1OLRf5g
p4555
aV7H5fb4BnnaX3IT4DPb724Q
p4556
aVggJ66LczEAF_U_8QMpBx2A
p4557
ag1120
aVjFJTKbLh0wXFjUWJp4uZaw
p4558
aVHZgnRq19XNjQA5QF_bBQHQ
p4559
ag3872
aVOIQzijmM4GEYTFfZWkgADQ
p4560
aVRwHE2Rt-DHlwWuxFLjPbgA
p4561
ag3873
aVECBsiDDZz_5yNBM9SnBMIQ
p4562
aVWjkjrsOzMAQ2wgY9tVyS0Q
p4563
ag2220
aVvzjw96c7iLrf8GS8N3pLfQ
p4564
aVyKPRuBvD3ScCc18QrZ4Y6w
p4565
aVrRfAzKeP9qNYINEUvmwAbQ
p4566
aVzqcTeWwRe7HjbwDaWJGjCw
p4567
asVAmerican (Traditional)
p4568
(lp4569
g785
ag790
ag4264
aVPyIJ8OEfltYaHWJaIwUF2Q
p4570
aVlsjRpOCkNvgduR8-YAUJJQ
p4571
aVHp3hFrjuu4nHz5sNkgbZbA
p4572
aVTyDle42ASOpi5Z7Sc3l28g
p4573
aVehaoreB8IzKY8KvRGqxcUA
p4574
aVqXh_8dyoLpniX1pv5jquOA
p4575
ag798
aVdTn4zWESE49YRd5Mox9MCg
p4576
aV-DpB583IrJuH1ehHu-U8sw
p4577
ag802
ag803
aVFWadSZw0G7HsgKXq7gHTnw
p4578
ag806
aVx63PfbaMeUqEoxFLM69GyQ
p4579
aVRq4uo4COsP8W-oo1KgTavQ
p4580
ag3549
ag1767
ag92
ag2725
ag110
ag1724
ag818
ag4337
ag2958
ag820
aVdjg7ois6c-reKa9kiiAMsQ
p4581
aViqK1C-4jHII1OFmLBQSbDg
p4582
ag824
ag3552
ag2051
ag3501
ag3621
ag1819
ag177
aVhWoT61c8id5vIsxlP618nQ
p4583
ag827
ag1822
ag2052
ag829
ag831
ag1727
ag2644
ag185
ag836
aVscECdz6MWRKb8XMzGUVtqw
p4584
aVg-mJhTtvg_uyv5zRFCIOkQ
p4585
ag841
ag1382
ag3555
aVo3C7dw7StU96jvJGEh1GhQ
p4586
ag2057
ag1178
ag847
ag850
ag853
ag854
ag2061
ag1549
aVDywFslWJ0MtA2_yclVCRzw
p4587
ag855
aVBiBAQWfc67AFrXC92SrifA
p4588
ag3637
ag3456
ag857
aVxHHgRQuE6XglxlA0lfo2zQ
p4589
aVKj3gT3riEsG02hAoSGyvzg
p4590
aVYwHAVxQyHC3NekG8wUTtew
p4591
ag1730
ag1772
aVkMClYpjFVdGHx-F05Dz-qg
p4592
aVb8zjLuBTk3SfqcNEMJUnDA
p4593
aVFLtSrMIowk2nnBSPDZTHWg
p4594
aVfCr4u2120pmNBRi8OnrtGA
p4595
aVDJVaJpOw0n3t2tO1i1vhiw
p4596
aVFumYAtwmfAo1d0X3GouTHQ
p4597
ag864
ag2067
aVGLhZFzBQpvYbhmGHPpfIPA
p4598
aVoAnqmstWSnN_065fur7jsQ
p4599
aVI2J9rTN_HKO9q-Y2mkSWpg
p4600
aV9kpb26BZPFao0DjEnOQ9Mg
p4601
ag1696
aVevakMk_jHxl2vQ5gvI43aA
p4602
aV8mYNPK-XbYpp8JweXVLNAQ
p4603
ag869
ag2973
ag872
ag1386
ag1544
aVZ8UzXiljNayzFsIZIYYrRA
p4604
ag2271
aVTO5uZ9jHB8-DKlf3nrL9Gw
p4605
ag881
aVmu1jUnAsRpJ60JnZwUTQAg
p4606
ag1551
ag886
aVuSM_sCp22BJWeatTDl6ODA
p4607
aVmUMGNgo6x1Tlj75o-P3UHA
p4608
ag2980
ag894
aVXXrCwY6PLlm8QunstjSduA
p4609
ag16
ag4274
aVPc3HM2jskoqVz2OLjtwEZA
p4610
aVZE3MayYRS4F4i__b7l9Hcg
p4611
ag899
aVol0N93ki0GNziudP_W5QOg
p4612
aV831BmmuoZF8px1KhBmRB9w
p4613
aV1hDSdypYCwmZbmKY6MECxA
p4614
ag903
ag4390
ag904
aVmRZCTkOgDc28VWYMvo3nVQ
p4615
aVfLZdfz0-YXyV2yhLxocaaQ
p4616
aV5bkqLif__BaKE3uuL4QDPg
p4617
ag906
ag3977
aVx52nVXRLWAwf3Rw76jcKMg
p4618
ag2989
aVAMcQOPu1hcSl7f6iguru3Q
p4619
ag3650
ag3799
ag2084
ag2085
ag912
aVIjxWgyfhkeNSlihnVL0jcA
p4620
ag2086
ag290
ag1670
aVp8krPyDx4AQe-UQfCzOrHQ
p4621
ag917
aV6Q7CWOOe6Ab9-nVN4TOeDg
p4622
ag919
ag3564
ag1227
aV-Y3Q670i-Xw0rSzGwirVFw
p4623
ag924
ag1396
aVGnP1zV2kD5Fg3qKta84JzA
p4624
aVst48HDTl7Ed86m6F-cFzXg
p4625
aVXCcDQzz52KqeZusNQnLs4A
p4626
aV2rGqJu82fKvS7hrxegRq9A
p4627
ag933
ag934
ag3999
ag1887
ag2179
ag3804
ag1463
aVcEbqZTzjA7BJDTFFTrFvvQ
p4628
ag3651
ag322
aVu1wF70zlIMVOG9sPvwyojA
p4629
ag325
ag1552
aVwOdELyCiFCkf1AKkDvpnxg
p4630
ag943
ag328
ag949
ag1248
aVFkl5eS3aJ6QzoXzQgB8p0A
p4631
aVaNt4V9CwuTXzeNj-Whw5rg
p4632
ag338
ag340
ag957
ag3009
ag358
ag962
ag964
ag966
ag3010
aVhsDkxhc-_YYsVqAeQBJJjg
p4633
aV7W0DbaxQ3FW0_zFOL2q1ag
p4634
ag969
ag2098
aVolrFYjKobULoH4-ZucnpTg
p4635
aVZ8i8UbqFpdXS4y9JxpLurg
p4636
ag972
aVxakA7jQ6TEwUoIy473IyGQ
p4637
aVzwWgOoaLY-RnFgNVuMc7GA
p4638
aVRM6Y5cjr8U-UqAu3fwoHew
p4639
ag1744
ag978
ag373
aVo13eH93qmWVNFZogkjhd9w
p4640
aV2a7SDTvavCPJae6jkwq0oQ
p4641
ag985
aVnLhru9U0BbWMRu9jYnLrBA
p4642
ag380
ag988
aVxJxwIz6kJQXiiYtdrTeBUg
p4643
ag3626
ag392
ag2104
ag998
aVD-gL3cN1gGxTWg_j3jT9Yg
p4644
ag3825
aVpzb-5Zpgx52PglQljZYi2g
p4645
ag1002
aVKiZW3K-xKiTX_JL5MVNYuA
p4646
ag3020
ag1005
ag1746
ag1007
aVy-NRJJGpCoXGibr1WhGOXA
p4647
ag1009
ag2108
aVomCROJcbZC1qqdQw47LRQA
p4648
aV0VIi1-Sn81b0VMsAr6HFwg
p4649
ag2111
aVFPMg5GW3tF7WzqvgSENePQ
p4650
ag2729
aV9-Jv7k4ajh2QnTVSXxH-lQ
p4651
ag3653
aVGnK8GEZfjDfWOliNW5Snpw
p4652
ag1016
ag3833
ag1020
ag3474
ag1021
ag3654
ag1025
aVMY6YAN5l0EzVUoAgDoXbdg
p4653
ag4090
ag1026
ag1294
ag440
ag3655
aVipTKqbqKa78u8LBfvIZhWQ
p4654
ag75
ag1034
aVrQX6RVr6E4Zg9hx8GBFGHQ
p4655
aVyFpfo_eYiCmULu637Q2SWw
p4656
ag1036
ag3656
aV0Kcuy_vyfWlAetDgdmIy3g
p4657
aV9Ing9MCm4QvL1y91SfdQ1w
p4658
aVRaUWW06DPd7WJ3U5mtFZRQ
p4659
aVQcCpjiAkADIEweQY8NNe6g
p4660
ag3478
ag3036
ag3037
aV2n71NTkVOE2V_LWSy-RFzA
p4661
aVvJrY6VbRbu_wKGGwZk78bA
p4662
ag2123
ag1049
ag2719
aVcRyZA1k3nvqj_0s_kr7HGA
p4663
ag1971
ag471
ag474
ag3041
ag1054
aVCjvV9PzdSOk7gapnwS1Xww
p4664
ag4298
aVtP3rm5dsFb5IHeXRy3sbmg
p4665
ag1057
aVz8jcGhobQlBWBl70a8_eyA
p4666
ag3043
aVYM3jVy2K7F3sDtnw6JbE0w
p4667
ag1064
ag495
ag1066
aVD-Cq3wSKLDgML58BInDaSQ
p4668
ag1707
ag1067
aVSPpt5JdIoVH89Ow6m0-gUg
p4669
aVN-QSeUbqGXDhNxF6kRdpkw
p4670
aVd0N2ol8F64xX7ysKxeoHtg
p4671
ag1074
ag1075
ag506
ag507
aVP5E6e4qHctElZuDa4uyolw
p4672
aVkrqcsL-PVY6m5yh1iqOHyw
p4673
ag1077
ag2130
ag3054
ag1754
aVlZr45ZNy21EldgpLiwE7Wg
p4674
ag2131
ag3055
ag1793
ag2699
aVOuVdoxl17tcwvTCYVgm85A
p4675
ag3136
ag2000
aVGQ1k97OA3kKUe4nHBoay1A
p4676
aVWsnrBFTAYz3oAD6LS3CWkg
p4677
aVSExJLA2RgTioEpkz1Z61eA
p4678
ag1088
aVI6QCXaOPrQa-i5zOHhRFBw
p4679
ag1090
ag3666
aVboL-6bDJjzw7okoYwIVnBA
p4680
ag2134
ag1092
ag3059
ag1093
ag1094
ag2136
ag1756
aVIF8tB6pjWoMeV4HxsNfvcg
p4681
aV45ClmqPAagmNvdUojFULZA
p4682
aV4v6JmGAmeRsKzSB-r31IpQ
p4683
ag2138
ag4258
aV0pPsnqxBAj7UGjGRL-QJ1A
p4684
ag1103
aV64y3ulS-wmu6FkT01SjPFA
p4685
ag1107
ag2141
aVfZR9_F2wNeDhliw-mEV1Ww
p4686
aVjxNdYI9sQmTkqfpTsmhGtg
p4687
ag3066
ag3349
ag1108
ag3675
ag3591
ag1116
aVFMXo3c4lfLcYv8wb4_sp3Q
p4688
ag2730
aVe9KXojla4OuVP7qcC5LNsg
p4689
ag1118
ag1121
ag1122
ag1123
ag1127
ag570
aV-tKLuyHs5Y6TDJ0QZFtaFw
p4690
aV1ezFnMTUpnbK9X45cm2sWQ
p4691
aVGx2873IIvAYb9eRvXKJoYg
p4692
aVqVzuAGRGWfpgBzFahXFzJQ
p4693
ag582
ag3490
aVKVPsaD2vY64UIvnNfKDHbA
p4694
ag2681
aVepTndncA37O9e28RshIU4A
p4695
ag4190
aVwMXggu190ZT0smWMicTG-g
p4696
aVcu2FFg4Fo13ZCH4lswf9Cg
p4697
ag3597
ag1720
aVrB3-X_DJWrwInNNJtKPnpQ
p4698
asVMeat Shops
p4699
(lp4700
g3452
ag1583
ag2709
ag744
ag520
asVJapanese
p4701
(lp4702
g2149
ag793
aVXrqownLHKAzfQwJl-spFeQ
p4703
ag2330
ag3380
aV2DEz094o_CZQo2m_rQSoqw
p4704
aVdFfQWqHyH_lqCpFhNgAhlQ
p4705
aVKrFjh__SDUyJ8jeyldkeFA
p4706
ag2469
aVRlSnnS3SkjVumfu7kzPLCg
p4707
aVNYMUlUYYEb3H0nKsauj-yw
p4708
ag2331
ag2334
aV-slxxzaq_vWyMcQjeY9w1g
p4709
ag2335
ag810
ag775
ag3386
ag2748
aVo7Dq7X8vQs7KiJhSBbKMVQ
p4710
ag2339
aVYom5MNVo6WANnsc9C-4MJQ
p4711
ag2754
aVQF4McYH5huGxgwOC2-Rxmg
p4712
aVIArQm7G7N6ANAX4eOXnosA
p4713
ag1726
aVD-lY5t8ug4Tjdf--0NbEqA
p4714
ag2343
ag1380
ag2345
ag3391
ag2346
ag2763
ag2347
aV0eSq1WPtbcir2cN9218I_A
p4715
ag2348
aViQ4Waco2uVpKUPWkU22Yuw
p4716
ag2489
aVgVJgVlEsWul-QbAcMiupzg
p4717
ag2352
ag2353
aVflN_sg4UYVnd2xD8VqDgow
p4718
ag2354
ag2355
aVh-Tv0JVo8ryjDIIWKp8naA
p4719
ag2356
ag2778
aV2ciUQ05DREauhBC3xiA4qw
p4720
ag3395
ag3730
ag2357
ag2358
ag2359
aVBuvq_MIT3FMz-2AKtiSkpw
p4721
aV78k5ctI0moXOSa5Jiidm5Q
p4722
ag3397
ag2361
ag3398
ag3400
ag2362
ag2366
aVeqFRLwj2_0v_1y2y8Ur3cg
p4723
ag2495
aVNlUTJLtYEKo-QqskJBZ7aA
p4724
ag2367
ag2368
aV24UHe1SZ4cgm6u6bU_L6xA
p4725
ag2369
aVy-kDWmr3BNj46C0BsTFZTw
p4726
aVkBruqr1yF9FAaEMV-0fWFw
p4727
ag2370
ag3403
ag2371
aVqZ39Su3tMBAmswdkZaEaiw
p4728
ag2372
ag2373
ag3099
ag3405
aVqlYBxzBEoP8ETofilw6yPA
p4729
aVm3qsb7Xf9Pivg9GAvx-gog
p4730
ag2377
aVSvho0F2hk_LzqYxKEUB7AA
p4731
ag2819
ag2378
aVmg0_Sc27pje8Yrt40meKyg
p4732
ag62
aVJGsp7JvzBy6OxI9vIemQUg
p4733
ag2380
aV7V61AMy3wGV11o6Ezh8J1Q
p4734
ag2383
ag3102
ag2384
aVB9kN780xFlQqnbsPZmH-PQ
p4735
aVscSUQpQN5hhusmPph0Tn1A
p4736
ag2385
ag2387
ag2181
aVQM78KebaKJgIdIWEbmPc6g
p4737
ag2388
aV-j6eq_xRHh9XYMjRiIeGsg
p4738
ag2389
ag2390
ag2391
ag2392
ag3808
ag3408
aVijIeHwnXzYW0DWAO3KLDFw
p4739
ag2393
ag951
ag1553
ag2396
ag2397
ag3814
aV850x37UqfYu034zO0iCKxw
p4740
ag3410
ag348
ag2399
aV5Di-sYMPB65fXzs99e8q_A
p4741
aVHSvxkRy8GQTZX56OFB4L-g
p4742
ag2401
ag4212
ag2404
ag3415
aViTDRsXWOFN3_IOROnNL72Q
p4743
ag2541
aVqB1llEIBbd11PEsYE8EaDA
p4744
aVU1JuxM8LkrntNpiDntMtzw
p4745
aVaT29o37bfRLKb73coM7Iqg
p4746
ag2406
ag2407
aV0F5Ee5Omg-gyMy-FJcy6NA
p4747
ag125
ag2408
ag2409
aVuDCNTlQt_TNzwsx3uOUf-Q
p4748
aVEZ0hSOUkt6wjSpTA6jLBXg
p4749
ag2860
ag2411
aV9SJBeXrpiFbeosV4B5cPsQ
p4750
ag2704
ag2412
aVYLAWm98c9aCmPD2JmxOq2A
p4751
aVwZQNnlUM8-P6vkCBuqQUkA
p4752
ag2415
ag3423
ag2109
aVB1yzS_JFgWxQVHsqQp-d7g
p4753
aVIEgvHUmKVVkjf7oJy6bPwQ
p4754
ag2417
ag2418
ag2420
ag3425
ag2421
ag2423
ag2424
ag23
aVl1Pr4SbYrmf-8Gi8e2WRIg
p4755
aViQ3fajcAmbQrwPfg-AoJTA
p4756
ag2426
aVZMejgg0By-DI2wyQWezBbQ
p4757
ag2428
aVV9sYjHX7X68ysPPLXpcWDQ
p4758
ag2431
aVa4QUSAFVvTu7Gv0oegzbXQ
p4759
aVPBWURWkikpzqBe5sHkur-w
p4760
ag2432
aVPBZCrvjHasay0wqqI58IxA
p4761
aVmuJnDitugFx6y64QVgllig
p4762
aVLDfM6KhpTXP53TegRa_UAg
p4763
ag2434
aVMN6XdUPlkKjhIY87fdBjPw
p4764
ag2900
ag2902
ag2437
ag2438
aVw-bOlmwKOqPKwq1t5zuuwQ
p4765
ag2439
ag1056
ag3432
ag3850
aVH-r7fSXMovxbT5TbWtWOsw
p4766
aVoDmaMEQ2eDrA8Lc35G2U8w
p4767
aVRqzSCEYRzFGQdaN9NmipoA
p4768
aVgxovcvlwQYL24HZksXK4Vg
p4769
ag2440
ag2441
ag2442
ag3436
ag2443
aVBWeipXwjf5BIDX_8TjH2JA
p4770
ag2444
aVZ4zV8THTGY1jUtsC8V213g
p4771
ag2445
ag2216
ag2446
ag2447
ag2448
ag2449
aVEKv1-JvdERKlABFlEN3g5g
p4772
ag2450
aVFHyVE2vrDXqIXeCCqfoyfQ
p4773
aVPBYypuk9DN-ccqrfYEJ9JA
p4774
ag2453
aVXz-dFXlN9ZTioplo8YAbsQ
p4775
ag2582
ag3443
ag2456
aV-E0x6y-6vnmxqrLB_swkaA
p4776
aVm7gyhK9_ftJirGakQwyzfA
p4777
ag2457
ag2458
ag1363
ag698
aVzPhln0KhLXiGjQuJxOT_eA
p4778
aVX1astFPJeGaHEfiBnbOmIw
p4779
ag1417
ag2948
aV8HqUl6witSBb156Kohx74A
p4780
asVArcades
p4781
(lp4782
g124
ag83
asVCambodian
p4783
(lp4784
VJx5PeeSyFYWsP5WZHWypWA
p4785
ag2481
aVwvzMYKKidWIWgPHFXeUW1g
p4786
asVSpecialty Food
p4787
(lp4788
g3381
ag164
ag732
ag3452
ag3782
ag2160
ag199
ag1677
ag1583
ag736
ag1678
ag3144
ag256
ag3616
ag265
ag2709
ag1597
ag58
ag741
ag3173
ag744
ag4211
ag2831
ag2832
ag3617
ag2692
ag348
ag1620
ag365
ag4212
ag3183
ag4213
ag2605
ag3015
ag3268
ag1006
ag3189
ag749
ag429
ag4215
ag4217
ag483
ag3618
ag502
ag2571
ag4218
ag520
ag4219
ag756
ag2736
ag3373
ag2631
ag1757
ag758
asVSpanish
p4789
(lp4790
g2309
ag2260
ag2310
ag4364
ag2073
ag2088
ag2314
ag2317
ag2318
ag1347
ag1762
asVSoul Food
p4791
(lp4792
VWC6y30BJZ8CLjJXDL_jaKg
p4793
ag3499
ag3500
ag3501
ag3455
ag3361
ag3505
ag3130
ag3811
ag994
aVrjKMT66kbHBYT7N0IBdSmw
p4794
ag3365
aVkXD3Go3tYDHlO09uW3JR8w
p4795
ag3516
ag780
ag135
aVlKXSubsYrSvt-RpZT4OwiQ
p4796
as.